# SymbolsHelper-Confirmed: 4:4.10.2 amd64
liboxygenstyle.so.4 kde-style-oxygen #MINVER#
 _ZN6Oxygen11ShadowCache10readConfigERK7KConfig@Base 4:4.10.2
 _ZN6Oxygen11ShadowCache13setShadowSizeEN8QPalette10ColorGroupEd@Base 4:4.10.2
 _ZN6Oxygen11ShadowCache22setShadowConfigurationERKNS_19ShadowConfigurationE@Base 4:4.10.2
 _ZN6Oxygen11ShadowCache7tileSetENS0_3KeyEd@Base 4:4.10.2
 _ZN6Oxygen11ShadowCache7tileSetERKNS0_3KeyE@Base 4:4.10.2
 _ZN6Oxygen11ShadowCacheC1ERNS_6HelperE@Base 4:4.10.2
 _ZN6Oxygen11ShadowCacheC2ERNS_6HelperE@Base 4:4.10.2
 _ZN6Oxygen19ShadowConfiguration13setInnerColorE6QColor@Base 4:4.10.2
 _ZN6Oxygen19ShadowConfiguration13setOuterColorE6QColor@Base 4:4.10.2
 _ZN6Oxygen19ShadowConfigurationC1EN8QPalette10ColorGroupE@Base 4:4.10.2
 _ZN6Oxygen19ShadowConfigurationC1EN8QPalette10ColorGroupERK12KConfigGroup@Base 4:4.10.2
 _ZN6Oxygen19ShadowConfigurationC2EN8QPalette10ColorGroupE@Base 4:4.10.2
 _ZN6Oxygen19ShadowConfigurationC2EN8QPalette10ColorGroupERK12KConfigGroup@Base 4:4.10.2
 _ZN6Oxygen6Helper10alphaColorE6QColord@Base 4:4.10.2
 _ZN6Oxygen6Helper10drawShadowER8QPainterRK6QColori@Base 4:4.10.2
 _ZN6Oxygen6Helper10slabSunkenERK6QColori@Base 4:4.10.2
 _ZN6Oxygen6Helper11_shadowGainE@Base 4:4.10.2
 _ZN6Oxygen6Helper12lowThresholdERK6QColor@Base 4:4.10.2
 _ZN6Oxygen6Helper12reloadConfigEv@Base 4:4.10.2
 _ZN6Oxygen6Helper13calcDarkColorERK6QColor@Base 4:4.10.2
 _ZN6Oxygen6Helper13drawOuterGlowER8QPainterRK6QColori@Base 4:4.10.2
 _ZN6Oxygen6Helper13drawSeparatorEP8QPainterRK5QRectRK6QColorN2Qt11OrientationE@Base 4:4.10.2
 _ZN6Oxygen6Helper13highThresholdERK6QColor@Base 4:4.10.2
 _ZN6Oxygen6Helper14_slabThicknessE@Base 4:4.10.2
 _ZN6Oxygen6Helper14calcLightColorERK6QColor@Base 4:4.10.2
 _ZN6Oxygen6Helper14drawFloatFrameEP8QPainter5QRectRK6QColorbbS6_6QFlagsINS_7TileSet4TileEE@Base 4:4.10.2
 _ZN6Oxygen6Helper14fillButtonSlabER8QPainterRK5QRectRK6QColorb@Base 4:4.10.2
 _ZN6Oxygen6Helper14radialGradientERK6QColorii@Base 4:4.10.2
 _ZN6Oxygen6Helper15backgroundColorERK6QColord@Base 4:4.10.2
 _ZN6Oxygen6Helper15calcShadowColorERK6QColor@Base 4:4.10.2
 _ZN6Oxygen6Helper15setMaxCacheSizeEi@Base 4:4.10.2
 _ZN6Oxygen6Helper16invalidateCachesEv@Base 4:4.10.2
 _ZN6Oxygen6Helper16verticalGradientERK6QColorii@Base 4:4.10.2
 _ZN6Oxygen6Helper18backgroundTopColorERK6QColor@Base 4:4.10.2
 _ZN6Oxygen6Helper21backgroundBottomColorERK6QColor@Base 4:4.10.2
 _ZN6Oxygen6Helper21backgroundRadialColorERK6QColor@Base 4:4.10.2
 _ZN6Oxygen6Helper22renderBackgroundPixmapEP8QPainterRK5QRectPK7QWidgetS8_ii@Base 4:4.10.2
 _ZN6Oxygen6Helper22renderWindowBackgroundEP8QPainterRK5QRectPK7QWidgetS8_RK6QColorii@Base 4:4.10.2
 _ZN6Oxygen6Helper4slabERK6QColorS3_di@Base 4:4.10.2
 _ZN6Oxygen6Helper8drawSlabER8QPainterRK6QColord@Base 4:4.10.2
 _ZN6Oxygen6Helper9_glowBiasE@Base 4:4.10.2
 _ZN6Oxygen6Helper9decoColorERK6QColorS3_@Base 4:4.10.2
 _ZN6Oxygen6Helper9renderDotEP8QPainterRK6QPointRK6QColor@Base 4:4.10.2
 _ZN6Oxygen6HelperC1ERK10QByteArray@Base 4:4.10.2
 _ZN6Oxygen6HelperC2ERK10QByteArray@Base 4:4.10.2
 _ZN6Oxygen7TileSet10initPixmapER7QVectorI7QPixmapERKS2_iiRK5QRect@Base 4:4.10.2
 _ZN6Oxygen7TileSet11_sideExtentE@Base 4:4.10.2
 _ZN6Oxygen7TileSetC1ERK7QPixmapiiiib@Base 4:4.10.2
 _ZN6Oxygen7TileSetC1ERK7QPixmapiiiiiiiib@Base 4:4.10.2
 _ZN6Oxygen7TileSetC1Ev@Base 4:4.10.2
 _ZN6Oxygen7TileSetC2ERK7QPixmapiiiib@Base 4:4.10.2
 _ZN6Oxygen7TileSetC2ERK7QPixmapiiiiiiiib@Base 4:4.10.2
 _ZN6Oxygen7TileSetC2Ev@Base 4:4.10.2
 _ZN6Oxygen9Animation11qt_metacallEN11QMetaObject4CallEiPPv@Base 4:4.10.2
 _ZN6Oxygen9Animation11qt_metacastEPKc@Base 4:4.10.2
 _ZN6Oxygen9Animation16staticMetaObjectE@Base 4:4.10.2
 _ZN6Oxygen9ItemModel4sortEiN2Qt9SortOrderE@Base 4:4.10.2
 _ZN6Oxygen9ItemModelC1EP7QObject@Base 4:4.10.2
 _ZN6Oxygen9ItemModelC2EP7QObject@Base 4:4.10.2
 _ZNK6Oxygen11ShadowCache14renderGradientER8QPainterRK6QRectFRK15QRadialGradientb@Base 4:4.10.2
 _ZNK6Oxygen11ShadowCache26shadowConfigurationChangedERKNS_19ShadowConfigurationE@Base 4:4.10.2
 _ZNK6Oxygen11ShadowCache6pixmapERKNS0_3KeyEb@Base 4:4.10.2
 _ZNK6Oxygen19ShadowConfiguration5writeER12KConfigGroup@Base 4:4.10.2
 _ZNK6Oxygen6Helper10setHasHintEmmb@Base 4:4.10.2
 _ZNK6Oxygen6Helper11roundedMaskERK5QRectiiii@Base 4:4.10.2
 _ZNK6Oxygen6Helper17drawInverseShadowER8QPainterRK6QColoriid@Base 4:4.10.2
 _ZNK6Oxygen6Helper19hasBackgroundPixmapEm@Base 4:4.10.2
 _ZNK6Oxygen6Helper21hasBackgroundGradientEm@Base 4:4.10.2
 _ZNK6Oxygen6Helper22setHasBackgroundPixmapEmb@Base 4:4.10.2
 _ZNK6Oxygen6Helper23checkAutoFillBackgroundEPK7QWidget@Base 4:4.10.2
 _ZNK6Oxygen6Helper24setHasBackgroundGradientEmb@Base 4:4.10.2
 _ZNK6Oxygen6Helper6configEv@Base 4:4.10.2
 _ZNK6Oxygen6Helper7hasHintEmm@Base 4:4.10.2
 _ZNK6Oxygen6Helper8fillSlabER8QPainterRK5QRecti@Base 4:4.10.2
 _ZNK6Oxygen7TileSet4saveERK7QStringS3_PKci@Base 4:4.10.2
 _ZNK6Oxygen7TileSet6renderERK5QRectP8QPainter6QFlagsINS0_4TileEE@Base 4:4.10.2
 _ZNK6Oxygen9Animation10metaObjectEv@Base 4:4.10.2
 _ZNK6Oxygen9ItemModel7indexesEiRK11QModelIndex@Base 4:4.10.2
 _ZTIN6Oxygen11ShadowCache8GaussianE@Base 4:4.10.2
 _ZTIN6Oxygen11ShadowCache9ParabolicE@Base 4:4.10.2
 _ZTIN6Oxygen11ShadowCacheE@Base 4:4.10.2
 _ZTIN6Oxygen19ShadowConfigurationE@Base 4:4.10.2
 _ZTIN6Oxygen6HelperE@Base 4:4.10.2
 _ZTIN6Oxygen7TileSetE@Base 4:4.10.2
 _ZTIN6Oxygen9AnimationE@Base 4:4.10.2
 _ZTIN6Oxygen9ItemModelE@Base 4:4.10.2
 _ZTSN6Oxygen11ShadowCache8GaussianE@Base 4:4.10.2
 _ZTSN6Oxygen11ShadowCache9ParabolicE@Base 4:4.10.2
 _ZTSN6Oxygen11ShadowCacheE@Base 4:4.10.2
 _ZTSN6Oxygen19ShadowConfigurationE@Base 4:4.10.2
 _ZTSN6Oxygen6HelperE@Base 4:4.10.2
 _ZTSN6Oxygen7TileSetE@Base 4:4.10.2
 _ZTSN6Oxygen9AnimationE@Base 4:4.10.2
 _ZTSN6Oxygen9ItemModelE@Base 4:4.10.2
 _ZTVN6Oxygen11ShadowCache8GaussianE@Base 4:4.10.2
 _ZTVN6Oxygen11ShadowCache9ParabolicE@Base 4:4.10.2
 _ZTVN6Oxygen11ShadowCacheE@Base 4:4.10.2
 _ZTVN6Oxygen19ShadowConfigurationE@Base 4:4.10.2
 _ZTVN6Oxygen6HelperE@Base 4:4.10.2
 _ZTVN6Oxygen7TileSetE@Base 4:4.10.2
 _ZTVN6Oxygen9AnimationE@Base 4:4.10.2
 _ZTVN6Oxygen9ItemModelE@Base 4:4.10.2
 dlrestrictions_data@Base 4:4.10.2
liboxygenstyleconfig.so.4 kde-style-oxygen #MINVER#
 _ZN6Oxygen19AnimationConfigItem10setEnabledERKb@Base 4:4.10.2
 _ZN6Oxygen19AnimationConfigItem11qt_metacallEN11QMetaObject4CallEiPPv@Base 4:4.10.2
 _ZN6Oxygen19AnimationConfigItem11qt_metacastEPKc@Base 4:4.10.2
 _ZN6Oxygen19AnimationConfigItem14setDescriptionERK7QString@Base 4:4.10.2
 _ZN6Oxygen19AnimationConfigItem16staticMetaObjectE@Base 4:4.10.2
 _ZN6Oxygen19AnimationConfigItem22setConfigurationWidgetEP7QWidget@Base 4:4.10.2
 _ZN6Oxygen19AnimationConfigItem5aboutEv@Base 4:4.10.2
 _ZN6Oxygen19AnimationConfigItem7changedEv@Base 4:4.10.2
 _ZN6Oxygen19AnimationConfigItem8setTitleERK7QString@Base 4:4.10.2
 _ZN6Oxygen19AnimationConfigItemC1EP7QWidgetRK7QStringS5_@Base 4:4.10.2
 _ZN6Oxygen19AnimationConfigItemC2EP7QWidgetRK7QStringS5_@Base 4:4.10.2
 _ZN6Oxygen19AnimationConfigItemD0Ev@Base 4:4.10.2
 _ZN6Oxygen19AnimationConfigItemD1Ev@Base 4:4.10.2
 _ZN6Oxygen19AnimationConfigItemD2Ev@Base 4:4.10.2
 _ZN6Oxygen25BaseAnimationConfigWidget11qt_metacallEN11QMetaObject4CallEiPPv@Base 4:4.10.2
 _ZN6Oxygen25BaseAnimationConfigWidget11qt_metacastEPKc@Base 4:4.10.2
 _ZN6Oxygen25BaseAnimationConfigWidget11updateItemsEb@Base 4:4.10.2
 _ZN6Oxygen25BaseAnimationConfigWidget13layoutChangedEv@Base 4:4.10.2
 _ZN6Oxygen25BaseAnimationConfigWidget16staticMetaObjectE@Base 4:4.10.2
 _ZN6Oxygen25BaseAnimationConfigWidget7changedEb@Base 4:4.10.2
 _ZN6Oxygen25BaseAnimationConfigWidget9setupItemEP11QGridLayoutPNS_19AnimationConfigItemE@Base 4:4.10.2
 _ZN6Oxygen25BaseAnimationConfigWidgetC1EP7QWidget@Base 4:4.10.2
 _ZN6Oxygen25BaseAnimationConfigWidgetC2EP7QWidget@Base 4:4.10.2
 _ZN6Oxygen25BaseAnimationConfigWidgetD0Ev@Base 4:4.10.2
 _ZN6Oxygen25BaseAnimationConfigWidgetD1Ev@Base 4:4.10.2
 _ZN6Oxygen25BaseAnimationConfigWidgetD2Ev@Base 4:4.10.2
 _ZN6Oxygen25GenericAnimationConfigBox11qt_metacallEN11QMetaObject4CallEiPPv@Base 4:4.10.2
 _ZN6Oxygen25GenericAnimationConfigBox11qt_metacastEPKc@Base 4:4.10.2
 _ZN6Oxygen25GenericAnimationConfigBox16staticMetaObjectE@Base 4:4.10.2
 _ZN6Oxygen25GenericAnimationConfigBoxC1EP7QWidget@Base 4:4.10.2
 _ZN6Oxygen25GenericAnimationConfigBoxC2EP7QWidget@Base 4:4.10.2
 _ZN6Oxygen25GenericAnimationConfigBoxD0Ev@Base 4:4.10.2
 _ZN6Oxygen25GenericAnimationConfigBoxD1Ev@Base 4:4.10.2
 _ZN6Oxygen25GenericAnimationConfigBoxD2Ev@Base 4:4.10.2
 _ZN6Oxygen26GenericAnimationConfigItem11qt_metacallEN11QMetaObject4CallEiPPv@Base 4:4.10.2
 _ZN6Oxygen26GenericAnimationConfigItem11qt_metacastEPKc@Base 4:4.10.2
 _ZN6Oxygen26GenericAnimationConfigItem16staticMetaObjectE@Base 4:4.10.2
 _ZN6Oxygen26GenericAnimationConfigItem29initializeConfigurationWidgetEP7QWidget@Base 4:4.10.2
 _ZN6Oxygen26GenericAnimationConfigItemD0Ev@Base 4:4.10.2
 _ZN6Oxygen26GenericAnimationConfigItemD1Ev@Base 4:4.10.2
 _ZN6Oxygen26GenericAnimationConfigItemD2Ev@Base 4:4.10.2
 _ZNK6Oxygen19AnimationConfigItem10metaObjectEv@Base 4:4.10.2
 _ZNK6Oxygen19AnimationConfigItem19configurationButtonEv@Base 4:4.10.2
 _ZNK6Oxygen19AnimationConfigItem5titleEv@Base 4:4.10.2
 _ZNK6Oxygen19AnimationConfigItem7enabledEv@Base 4:4.10.2
 _ZNK6Oxygen25BaseAnimationConfigWidget10metaObjectEv@Base 4:4.10.2
 _ZNK6Oxygen25BaseAnimationConfigWidget17animationsEnabledEv@Base 4:4.10.2
 _ZNK6Oxygen25GenericAnimationConfigBox10metaObjectEv@Base 4:4.10.2
 _ZNK6Oxygen25GenericAnimationConfigBox15durationSpinBoxEv@Base 4:4.10.2
 _ZNK6Oxygen26GenericAnimationConfigItem10metaObjectEv@Base 4:4.10.2
 _ZTIN6Oxygen19AnimationConfigItemE@Base 4:4.10.2
 _ZTIN6Oxygen25BaseAnimationConfigWidgetE@Base 4:4.10.2
 _ZTIN6Oxygen25GenericAnimationConfigBoxE@Base 4:4.10.2
 _ZTIN6Oxygen26GenericAnimationConfigItemE@Base 4:4.10.2
 _ZTSN6Oxygen19AnimationConfigItemE@Base 4:4.10.2
 _ZTSN6Oxygen25BaseAnimationConfigWidgetE@Base 4:4.10.2
 _ZTSN6Oxygen25GenericAnimationConfigBoxE@Base 4:4.10.2
 _ZTSN6Oxygen26GenericAnimationConfigItemE@Base 4:4.10.2
 _ZTVN6Oxygen19AnimationConfigItemE@Base 4:4.10.2
 _ZTVN6Oxygen25BaseAnimationConfigWidgetE@Base 4:4.10.2
 _ZTVN6Oxygen25GenericAnimationConfigBoxE@Base 4:4.10.2
 _ZTVN6Oxygen26GenericAnimationConfigItemE@Base 4:4.10.2
 dlrestrictions_data@Base 4:4.10.2
 (c++)"non-virtual thunk to Oxygen::AnimationConfigItem::~AnimationConfigItem()@Base" 4:4.10.2
 (c++)"non-virtual thunk to Oxygen::BaseAnimationConfigWidget::~BaseAnimationConfigWidget()@Base" 4:4.10.2
 (c++)"non-virtual thunk to Oxygen::GenericAnimationConfigBox::~GenericAnimationConfigBox()@Base" 4:4.10.2
 (c++)"non-virtual thunk to Oxygen::GenericAnimationConfigItem::~GenericAnimationConfigItem()@Base" 4:4.10.2
