# SymbolsHelper-Confirmed: 4:4.5.90 amd64
libkwineffects.so.1 libkwineffects1a #MINVER#
* Build-Depends-Package: kdebase-workspace-dev
 _ZN4KWin10Extensions10has_damageE@Base 4:4.3.4
 _ZN4KWin10Extensions12data_opcodesE@Base 4:4.3.4
 _ZN4KWin10Extensions13fixes_versionE@Base 4:4.3.4
 _ZN4KWin10Extensions13shape_versionE@Base 4:4.3.4
 _ZN4KWin10Extensions14render_versionE@Base 4:4.3.4
 _ZN4KWin10Extensions15data_extensionsE@Base 4:4.3.4
 _ZN4KWin10Extensions15sync_event_baseE@Base 4:4.3.4
 _ZN4KWin10Extensions16data_error_basesE@Base 4:4.3.4
 _ZN4KWin10Extensions16data_nextensionsE@Base 4:4.3.4
 _ZN4KWin10Extensions16randrNotifyEventEv@Base 4:4.3.4
 _ZN4KWin10Extensions16randr_event_baseE@Base 4:4.3.4
 _ZN4KWin10Extensions16shapeNotifyEventEv@Base 4:4.3.4
 _ZN4KWin10Extensions16shape_event_baseE@Base 4:4.3.4
 _ZN4KWin10Extensions17composite_versionE@Base 4:4.3.4
 _ZN4KWin10Extensions17damageNotifyEventEv@Base 4:4.3.4
 _ZN4KWin10Extensions17damage_event_baseE@Base 4:4.3.4
 _ZN4KWin10Extensions18fillExtensionsDataERPPKcRiRPiS7_@Base 4:4.3.4
 _ZN4KWin10Extensions19shapeInputAvailableEv@Base 4:4.3.4
 _ZN4KWin10Extensions20fixesRegionAvailableEv@Base 4:4.3.4
 _ZN4KWin10Extensions20syncAlarmNotifyEventEv@Base 4:4.3.4
 _ZN4KWin10Extensions25compositeOverlayAvailableEv@Base 4:4.3.4
 _ZN4KWin10Extensions4initEv@Base 4:4.3.4
 _ZN4KWin10Extensions7addDataEPKc@Base 4:4.3.4
 _ZN4KWin10Extensions7has_glxE@Base 4:4.3.4
 _ZN4KWin10Extensions8hasShapeEm@Base 4:4.3.4
 _ZN4KWin10Extensions8has_syncE@Base 4:4.3.4
 _ZN4KWin10Extensions9has_randrE@Base 4:4.3.4
 _ZN4KWin10GLPlatform10s_platformE@Base 4:4.5.90
 _ZN4KWin10GLPlatform6detectEv@Base 4:4.5.90
 _ZN4KWin10GLPlatformC1Ev@Base 4:4.5.90
 _ZN4KWin10GLPlatformC2Ev@Base 4:4.5.90
 _ZN4KWin10GLPlatformD1Ev@Base 4:4.5.90
 _ZN4KWin10GLPlatformD2Ev@Base 4:4.5.90
#MISSING: 4:4.5.90# _ZN4KWin11EffectFrame10autoResizeEv@Base 4:4.3.4
#MISSING: 4:4.5.90# _ZN4KWin11EffectFrame11qt_metacallEN11QMetaObject4CallEiPPv@Base 4:4.3.4
#MISSING: 4:4.5.90# _ZN4KWin11EffectFrame11qt_metacastEPKc@Base 4:4.3.4
#MISSING: 4:4.5.90# _ZN4KWin11EffectFrame11setGeometryERK5QRectb@Base 4:4.3.4
#MISSING: 4:4.5.90# _ZN4KWin11EffectFrame11setIconSizeERK5QSize@Base 4:4.3.4
#MISSING: 4:4.5.90# _ZN4KWin11EffectFrame11setPositionERK6QPoint@Base 4:4.3.4
#MISSING: 4:4.5.90# _ZN4KWin11EffectFrame13updatePictureEv@Base 4:4.3.4
#MISSING: 4:4.5.90# _ZN4KWin11EffectFrame13updateTextureEv@Base 4:4.3.4
 _ZN4KWin11EffectFrame15enableCrossFadeEb@Base 4:4.5.90
 _ZN4KWin11EffectFrame15styledTextColorEv@Base 4:4.3.4
#MISSING: 4:4.5.90# _ZN4KWin11EffectFrame16staticMetaObjectE@Base 4:4.3.4
#MISSING: 4:4.5.90# _ZN4KWin11EffectFrame17m_unstyledTextureE@Base 4:4.3.4
#MISSING: 4:4.5.90# _ZN4KWin11EffectFrame17updateTextPictureEv@Base 4:4.3.4
#MISSING: 4:4.5.90# _ZN4KWin11EffectFrame17updateTextTextureEv@Base 4:4.3.4
#MISSING: 4:4.5.90# _ZN4KWin11EffectFrame18plasmaThemeChangedEv@Base 4:4.3.4
 _ZN4KWin11EffectFrame20setCrossFadeProgressEd@Base 4:4.5.90
#MISSING: 4:4.5.90# _ZN4KWin11EffectFrame21updateUnstyledTextureEv@Base 4:4.3.4
#MISSING: 4:4.5.90# _ZN4KWin11EffectFrame4freeEv@Base 4:4.3.4
#MISSING: 4:4.5.90# _ZN4KWin11EffectFrame6renderE7QRegiondd@Base 4:4.3.4
#MISSING: 4:4.5.90# _ZN4KWin11EffectFrame7cleanupEv@Base 4:4.4.0
#MISSING: 4:4.5.90# _ZN4KWin11EffectFrame7setFontERK5QFont@Base 4:4.3.4
#MISSING: 4:4.5.90# _ZN4KWin11EffectFrame7setIconERK7QPixmap@Base 4:4.3.4
#MISSING: 4:4.5.90# _ZN4KWin11EffectFrame7setTextERK7QString@Base 4:4.3.4
#MISSING: 4:4.5.90# _ZN4KWin11EffectFrameC1ENS0_5StyleEb6QPoint6QFlagsIN2Qt13AlignmentFlagEE@Base 4:4.3.4
 _ZN4KWin11EffectFrameC1Ev@Base 4:4.5.90
#MISSING: 4:4.5.90# _ZN4KWin11EffectFrameC2ENS0_5StyleEb6QPoint6QFlagsIN2Qt13AlignmentFlagEE@Base 4:4.3.4
 _ZN4KWin11EffectFrameC2Ev@Base 4:4.5.90
 _ZN4KWin11EffectFrameD0Ev@Base 4:4.3.4
 _ZN4KWin11EffectFrameD1Ev@Base 4:4.3.4
 _ZN4KWin11EffectFrameD2Ev@Base 4:4.3.4
 _ZN4KWin11glUniform1fE@Base 4:4.3.4
 _ZN4KWin11glUniform1iE@Base 4:4.3.4
 _ZN4KWin11preMultiplyERK6QColorf@Base 4:4.3.4
 _ZN4KWin11xRenderFillEPK12XRenderColor@Base 4:4.3.4
 _ZN4KWin11xRenderFillERK6QColor@Base 4:4.3.4
 _ZN4KWin12EffectWindowC1Ev@Base 4:4.3.4
 _ZN4KWin12EffectWindowC2Ev@Base 4:4.3.4
 _ZN4KWin12EffectWindowD0Ev@Base 4:4.3.4
 _ZN4KWin12EffectWindowD1Ev@Base 4:4.3.4
 _ZN4KWin12EffectWindowD2Ev@Base 4:4.3.4
 _ZN4KWin12PaintClipper3popERK7QRegion@Base 4:4.3.4
 _ZN4KWin12PaintClipper4clipEv@Base 4:4.3.4
 _ZN4KWin12PaintClipper4pushERK7QRegion@Base 4:4.3.4
 _ZN4KWin12PaintClipper5areasE@Base 4:4.3.4
 _ZN4KWin12PaintClipper8Iterator4nextEv@Base 4:4.3.4
 _ZN4KWin12PaintClipper8Iterator6isDoneEv@Base 4:4.3.4
 _ZN4KWin12PaintClipper8IteratorC1Ev@Base 4:4.3.4
 _ZN4KWin12PaintClipper8IteratorC2Ev@Base 4:4.3.4
 _ZN4KWin12PaintClipper8IteratorD1Ev@Base 4:4.3.4
 _ZN4KWin12PaintClipper8IteratorD2Ev@Base 4:4.3.4
 _ZN4KWin12PaintClipper9paintAreaEv@Base 4:4.3.4
 _ZN4KWin12PaintClipperC1ERK7QRegion@Base 4:4.3.4
 _ZN4KWin12PaintClipperC2ERK7QRegion@Base 4:4.3.4
 _ZN4KWin12PaintClipperD1Ev@Base 4:4.3.4
 _ZN4KWin12PaintClipperD2Ev@Base 4:4.3.4
 _ZN4KWin12RotationDataC1Ev@Base 4:4.3.4
 _ZN4KWin12RotationDataC2Ev@Base 4:4.3.4
 _ZN4KWin12ShaderEffect10setEnabledEb@Base 4:4.3.4
 _ZN4KWin12ShaderEffect14prePaintScreenERNS_18ScreenPrePaintDataEi@Base 4:4.3.4
 _ZN4KWin12ShaderEffect15postPaintScreenEv@Base 4:4.3.4
 _ZN4KWin12ShaderEffect8loadDataERK7QString@Base 4:4.3.4
 _ZN4KWin12ShaderEffect9supportedEv@Base 4:4.3.4
 _ZN4KWin12ShaderEffectC1ERK7QString@Base 4:4.3.4
 _ZN4KWin12ShaderEffectC2ERK7QString@Base 4:4.3.4
 _ZN4KWin12ShaderEffectD0Ev@Base 4:4.3.4
 _ZN4KWin12ShaderEffectD1Ev@Base 4:4.3.4
 _ZN4KWin12ShaderEffectD2Ev@Base 4:4.3.4
 _ZN4KWin12checkGLErrorEPKc@Base 4:4.3.4
 _ZN4KWin12glBindBufferE@Base 4:4.5.90
 _ZN4KWin12glBlendColorE@Base 4:4.5.0
 _ZN4KWin12glBufferDataE@Base 4:4.5.90
 _ZN4KWin12glGenBuffersE@Base 4:4.5.90
 _ZN4KWin12glUniform1fvE@Base 4:4.3.4
 _ZN4KWin12glUniform2fvE@Base 4:4.3.4
 _ZN4KWin12glUniform3fvE@Base 4:4.5.0
 _ZN4KWin12glUniform4fvE@Base 4:4.5.0
 _ZN4KWin12glUseProgramE@Base 4:4.3.4
 _ZN4KWin12hasGLVersionEiii@Base 4:4.3.4
 _ZN4KWin13glGetShaderivE@Base 4:4.3.4
 _ZN4KWin13glLinkProgramE@Base 4:4.3.4
 _ZN4KWin13hasGLXVersionEiii@Base 4:4.3.4
 _ZN4KWin14EffectsHandler12effectConfigERK7QString@Base 4:4.3.4
 _ZN4KWin14EffectsHandler17createInputWindowEPNS_6EffectERK5QRectRK7QCursor@Base 4:4.3.4
 _ZN4KWin14EffectsHandler17sendReloadMessageERK7QString@Base 4:4.3.4
 _ZN4KWin14EffectsHandler20checkDriverBlacklistERK12KConfigGroup@Base 4:4.5.0
 _ZN4KWin14EffectsHandler21transformWindowDamageEPNS_12EffectWindowERK5QRect@Base 4:4.3.4
#MISSING: 4:4.5.90# _ZN4KWin14EffectsHandler23paintTextWithBackgroundERK7QStringRK5QRectRK6QColorS9_RK5QFontRK6QFlagsIN2Qt13AlignmentFlagEE@Base 4:4.3.4
 _ZN4KWin14EffectsHandler27createFullScreenInputWindowEPNS_6EffectERK7QCursor@Base 4:4.3.4
#MISSING: 4:4.5.90# _ZN4KWin14EffectsHandler9paintTextERK7QStringRK5QRectRK6QColorRK5QFontRK6QFlagsIN2Qt13AlignmentFlagEE@Base 4:4.3.4
 _ZN4KWin14EffectsHandlerC1ENS_15CompositingTypeE@Base 4:4.3.4
 _ZN4KWin14EffectsHandlerC2ENS_15CompositingTypeE@Base 4:4.3.4
 _ZN4KWin14EffectsHandlerD0Ev@Base 4:4.3.4
 _ZN4KWin14EffectsHandlerD1Ev@Base 4:4.3.4
 _ZN4KWin14EffectsHandlerD2Ev@Base 4:4.3.4
 _ZN4KWin14GLRenderTarget10initStaticEv@Base 4:4.3.4
 _ZN4KWin14GLRenderTarget10mSupportedE@Base 4:4.3.4
 _ZN4KWin14GLRenderTarget6enableEv@Base 4:4.3.4
 _ZN4KWin14GLRenderTarget7disableEv@Base 4:4.3.4
 _ZN4KWin14GLRenderTarget7initFBOEv@Base 4:4.3.4
 _ZN4KWin14GLRenderTargetC1EPNS_9GLTextureE@Base 4:4.3.4
 _ZN4KWin14GLRenderTargetC2EPNS_9GLTextureE@Base 4:4.3.4
 _ZN4KWin14GLRenderTargetD1Ev@Base 4:4.3.4
 _ZN4KWin14GLRenderTargetD2Ev@Base 4:4.3.4
 _ZN4KWin14GLVertexBuffer10initStaticEv@Base 4:4.5.90
 _ZN4KWin14GLVertexBuffer11isSupportedEv@Base 4:4.5.90
 _ZN4KWin14GLVertexBuffer6renderERK7QRegionj@Base 4:4.5.90
 _ZN4KWin14GLVertexBuffer6renderEj@Base 4:4.5.90
 _ZN4KWin14GLVertexBuffer7setDataEiiPKfS2_@Base 4:4.5.90
 _ZN4KWin14GLVertexBufferC1ENS0_9UsageHintE@Base 4:4.5.90
 _ZN4KWin14GLVertexBufferC2ENS0_9UsageHintE@Base 4:4.5.90
 _ZN4KWin14GLVertexBufferD1Ev@Base 4:4.5.90
 _ZN4KWin14GLVertexBufferD2Ev@Base 4:4.5.90
 _ZN4KWin14XRenderPictureC1E7QPixmap@Base 4:4.3.4
 _ZN4KWin14XRenderPictureC1Emi@Base 4:4.3.4
 _ZN4KWin14XRenderPictureC2E7QPixmap@Base 4:4.3.4
 _ZN4KWin14XRenderPictureC2Emi@Base 4:4.3.4
 _ZN4KWin14glAttachShaderE@Base 4:4.3.4
 _ZN4KWin14glCreateShaderE@Base 4:4.3.4
 _ZN4KWin14glDeleteShaderE@Base 4:4.3.4
 _ZN4KWin14glGetProgramivE@Base 4:4.3.4
 _ZN4KWin14glShaderSourceE@Base 4:4.3.4
 _ZN4KWin14hasGLExtensionERK7QString@Base 4:4.3.4
#MISSING: 4:4.5.90# _ZN4KWin14renderRoundBoxERK5QRectfPNS_9GLTextureE@Base 4:4.3.4
 _ZN4KWin15ScreenPaintDataC1Ev@Base 4:4.3.4
 _ZN4KWin15ScreenPaintDataC2Ev@Base 4:4.3.4
 _ZN4KWin15WindowPaintDataC1EPNS_12EffectWindowE@Base 4:4.3.4
 _ZN4KWin15WindowPaintDataC2EPNS_12EffectWindowE@Base 4:4.3.4
 _ZN4KWin15addQuadVerticesER7QVectorIfEffff@Base 4:4.3.4
 _ZN4KWin15glActiveTextureE@Base 4:4.3.4
 _ZN4KWin15glCompileShaderE@Base 4:4.3.4
 _ZN4KWin15glCreateProgramE@Base 4:4.3.4
 _ZN4KWin15glDeleteBuffersE@Base 4:4.5.90
 _ZN4KWin15glDeleteProgramE@Base 4:4.3.4
 _ZN4KWin15glIsFramebufferE@Base 4:4.3.4
 _ZN4KWin15glXCreatePixmapE@Base 4:4.3.4
 _ZN4KWin15glXCreateWindowE@Base 4:4.3.4
 _ZN4KWin15glXGetFBConfigsE@Base 4:4.3.4
 _ZN4KWin15glXGetVideoSyncE@Base 4:4.3.4
 _ZN4KWin15toXserverRegionE7QRegion@Base 4:4.3.4
 _ZN4KWin15xRenderRoundBoxEmRK5QRectiRK6QColor@Base 4:4.3.4
 _ZN4KWin16glBindProgramARBE@Base 4:4.5.0
 _ZN4KWin16glGenProgramsARBE@Base 4:4.5.0
 _ZN4KWin16glGenerateMipmapE@Base 4:4.3.4
 _ZN4KWin16glIsRenderbufferE@Base 4:4.3.4
 _ZN4KWin16glVertexAttrib1fE@Base 4:4.3.4
 _ZN4KWin16glXCopySubBufferE@Base 4:4.3.4
 _ZN4KWin16glXDestroyPixmapE@Base 4:4.3.4
 _ZN4KWin16glXDestroyWindowE@Base 4:4.3.4
 _ZN4KWin16glXQueryDrawableE@Base 4:4.3.4
 _ZN4KWin16glXWaitVideoSyncE@Base 4:4.3.4
 _ZN4KWin16renderGLGeometryERK7QRegioniPKfS4_S4_ii@Base 4:4.3.4
 _ZN4KWin16renderGLGeometryEiPKfS1_S1_ii@Base 4:4.3.4
 _ZN4KWin17EffectWindowGroupD0Ev@Base 4:4.3.4
 _ZN4KWin17EffectWindowGroupD1Ev@Base 4:4.3.4
 _ZN4KWin17EffectWindowGroupD2Ev@Base 4:4.3.4
 _ZN4KWin17glBindFramebufferE@Base 4:4.3.4
 _ZN4KWin17glGenFramebuffersE@Base 4:4.3.4
 _ZN4KWin17glGetProgramivARBE@Base 4:4.5.0
 _ZN4KWin17glValidateProgramE@Base 4:4.3.4
 _ZN4KWin17glXGetProcAddressE@Base 4:4.3.4
 _ZN4KWin17nearestPowerOfTwoEi@Base 4:4.3.4
 _ZN4KWin18WindowPrePaintData14setTransformedEv@Base 4:4.3.4
 _ZN4KWin18WindowPrePaintData14setTranslucentEv@Base 4:4.3.4
 _ZN4KWin18glBindRenderbufferE@Base 4:4.3.4
 _ZN4KWin18glGenRenderbuffersE@Base 4:4.3.4
 _ZN4KWin18glGetShaderInfoLogE@Base 4:4.3.4
 _ZN4KWin18glProgramStringARBE@Base 4:4.5.0
 _ZN4KWin18glResolveFunctionsEv@Base 4:4.3.4
 _ZN4KWin18glXBindTexImageEXTE@Base 4:4.3.4
 _ZN4KWin19WindowMotionManager10moveWindowEPNS_12EffectWindowE6QPointdd@Base 4:4.3.4
 _ZN4KWin19WindowMotionManager11unmanageAllEv@Base 4:4.3.4
 _ZN4KWin19WindowMotionManager22setTransformedGeometryEPNS_12EffectWindowERK6QRectF@Base 4:4.5.0
 _ZN4KWin19WindowMotionManager5applyEPNS_12EffectWindowERNS_15WindowPaintDataE@Base 4:4.3.4
 _ZN4KWin19WindowMotionManager5resetEPNS_12EffectWindowE@Base 4:4.3.4
 _ZN4KWin19WindowMotionManager5resetEv@Base 4:4.3.4
 _ZN4KWin19WindowMotionManager6manageEPNS_12EffectWindowE@Base 4:4.3.4
 _ZN4KWin19WindowMotionManager8unmanageEPNS_12EffectWindowE@Base 4:4.3.4
 _ZN4KWin19WindowMotionManager9calculateEi@Base 4:4.3.4
 _ZN4KWin19WindowMotionManagerC1Eb@Base 4:4.3.4
 _ZN4KWin19WindowMotionManagerC2Eb@Base 4:4.3.4
 _ZN4KWin19WindowMotionManagerD1Ev@Base 4:4.3.4
 _ZN4KWin19WindowMotionManagerD2Ev@Base 4:4.3.4
 _ZN4KWin19glDeleteProgramsARBE@Base 4:4.5.0
 _ZN4KWin19glGetAttribLocationE@Base 4:4.3.4
 _ZN4KWin19glGetProgramInfoLogE@Base 4:4.3.4
 _ZN4KWin19glTextureUnitsCountE@Base 4:4.3.4
 _ZN4KWin19glxResolveFunctionsEv@Base 4:4.3.4
 _ZN4KWin19xRenderBlendPictureEd@Base 4:4.3.4
 _ZN4KWin20glDeleteFramebuffersE@Base 4:4.3.4
 _ZN4KWin20glGetUniformLocationE@Base 4:4.3.4
 _ZN4KWin20glXGetFBConfigAttribE@Base 4:4.3.4
 _ZN4KWin21GlobalShortcutsEditorC1EP7QWidget@Base 4:4.3.4
 _ZN4KWin21GlobalShortcutsEditorC2EP7QWidget@Base 4:4.3.4
 _ZN4KWin21glDeleteRenderbuffersE@Base 4:4.3.4
 _ZN4KWin21glRenderbufferStorageE@Base 4:4.3.4
 _ZN4KWin21glXReleaseTexImageEXTE@Base 4:4.3.4
 _ZN4KWin22glFramebufferTexture1DE@Base 4:4.3.4
 _ZN4KWin22glFramebufferTexture2DE@Base 4:4.3.4
 _ZN4KWin22glFramebufferTexture3DE@Base 4:4.3.4
#MISSING: 4:4.5.90# _ZN4KWin22renderRoundBoxWithEdgeERK5QRectf@Base 4:4.3.4
 _ZN4KWin24glCheckFramebufferStatusE@Base 4:4.3.4
 _ZN4KWin24glXGetVisualFromFBConfigE@Base 4:4.3.4
 _ZN4KWin25glFramebufferRenderbufferE@Base 4:4.3.4
 _ZN4KWin25renderGLGeometryImmediateEiPKfS1_S1_ii@Base 4:4.3.4
 _ZN4KWin28glGetRenderbufferParameterivE@Base 4:4.3.4
 _ZN4KWin28glProgramLocalParameter4fARBE@Base 4:4.5.0
 _ZN4KWin37glGetFramebufferAttachmentParameterivE@Base 4:4.3.4
 _ZN4KWin6Effect10buildQuadsEPNS_12EffectWindowERNS_14WindowQuadListE@Base 4:4.3.4
 _ZN4KWin6Effect10drawWindowEPNS_12EffectWindowEi7QRegionRNS_15WindowPaintDataE@Base 4:4.3.4
 _ZN4KWin6Effect11paintScreenEi7QRegionRNS_15ScreenPaintDataE@Base 4:4.3.4
 _ZN4KWin6Effect11paintWindowEPNS_12EffectWindowEi7QRegionRNS_15WindowPaintDataE@Base 4:4.3.4
 _ZN4KWin6Effect11reconfigureE6QFlagsINS0_15ReconfigureFlagEE@Base 4:4.3.4
 _ZN4KWin6Effect11tabBoxAddedEi@Base 4:4.3.4
 _ZN4KWin6Effect11windowAddedEPNS_12EffectWindowE@Base 4:4.3.4
 _ZN4KWin6Effect12displayWidthEv@Base 4:4.3.4
 _ZN4KWin6Effect12mouseChangedERK6QPointS3_6QFlagsIN2Qt11MouseButtonEES7_S4_INS5_16KeyboardModifierEES9_@Base 4:4.3.4
 _ZN4KWin6Effect12tabBoxClosedEv@Base 4:4.3.4
 _ZN4KWin6Effect12windowClosedEPNS_12EffectWindowE@Base 4:4.3.4
 _ZN4KWin6Effect13animationTimeERK12KConfigGroupRK7QStringi@Base 4:4.3.4
 _ZN4KWin6Effect13animationTimeEi@Base 4:4.3.4
 _ZN4KWin6Effect13displayHeightEv@Base 4:4.3.4
 _ZN4KWin6Effect13tabBoxUpdatedEv@Base 4:4.3.4
 _ZN4KWin6Effect13windowDamagedEPNS_12EffectWindowERK5QRect@Base 4:4.3.4
 _ZN4KWin6Effect13windowDeletedEPNS_12EffectWindowE@Base 4:4.3.4
 _ZN4KWin6Effect14desktopChangedEi@Base 4:4.3.4
 _ZN4KWin6Effect14prePaintScreenERNS_18ScreenPrePaintDataEi@Base 4:4.3.4
 _ZN4KWin6Effect14prePaintWindowEPNS_12EffectWindowERNS_18WindowPrePaintDataEi@Base 4:4.3.4
 _ZN4KWin6Effect14propertyNotifyEPNS_12EffectWindowEl@Base 4:4.3.4
 _ZN4KWin6Effect14tabBoxKeyEventEP9QKeyEvent@Base 4:4.4.0
 _ZN4KWin6Effect15borderActivatedENS_14ElectricBorderE@Base 4:4.3.4
 _ZN4KWin6Effect15postPaintScreenEv@Base 4:4.3.4
 _ZN4KWin6Effect15postPaintWindowEPNS_12EffectWindowE@Base 4:4.3.4
 _ZN4KWin6Effect15windowActivatedEPNS_12EffectWindowE@Base 4:4.3.4
 _ZN4KWin6Effect15windowMinimizedEPNS_12EffectWindowE@Base 4:4.3.4
 _ZN4KWin6Effect16paintEffectFrameEPNS_11EffectFrameE7QRegiondd@Base 4:4.5.90
 _ZN4KWin6Effect17windowUnminimizedEPNS_12EffectWindowE@Base 4:4.3.4
 _ZN4KWin6Effect20clientGroupItemAddedEPNS_12EffectWindowES2_@Base 4:4.4.0
 _ZN4KWin6Effect20grabbedKeyboardEventEP9QKeyEvent@Base 4:4.3.4
 _ZN4KWin6Effect20windowOpacityChangedEPNS_12EffectWindowEd@Base 4:4.3.4
 _ZN4KWin6Effect21numberDesktopsChangedEi@Base 4:4.5.0
 _ZN4KWin6Effect21transformWindowDamageEPNS_12EffectWindowERK5QRect@Base 4:4.3.4
 _ZN4KWin6Effect21windowInputMouseEventEmP6QEvent@Base 4:4.3.4
 _ZN4KWin6Effect22clientGroupItemRemovedEPNS_12EffectWindowES2_@Base 4:4.4.0
 _ZN4KWin6Effect22windowUserMovedResizedEPNS_12EffectWindowEbb@Base 4:4.3.4
 _ZN4KWin6Effect23clientGroupItemSwitchedEPNS_12EffectWindowES2_@Base 4:4.4.0
 _ZN4KWin6Effect26setPositionTransformationsERNS_15WindowPaintDataER5QRectPNS_12EffectWindowERKS3_N2Qt15AspectRatioModeE@Base 4:4.3.4
 _ZN4KWin6Effect26windowGeometryShapeChangedEPNS_12EffectWindowERK5QRect@Base 4:4.3.4
 _ZN4KWin6Effect30windowMoveResizeGeometryUpdateEPNS_12EffectWindowERK5QRect@Base 4:4.4.0
 _ZN4KWin6Effect5proxyEv@Base 4:4.4.0
 _ZN4KWin6Effect8providesENS0_7FeatureE@Base 4:4.5.90
 _ZN4KWin6Effect9cursorPosEv@Base 4:4.3.4
 _ZN4KWin6EffectC1Ev@Base 4:4.3.4
 _ZN4KWin6EffectC2Ev@Base 4:4.3.4
 _ZN4KWin6EffectD0Ev@Base 4:4.3.4
 _ZN4KWin6EffectD1Ev@Base 4:4.3.4
 _ZN4KWin6EffectD2Ev@Base 4:4.3.4
 (optional=templinst)_ZN4KWin6MotionI7QPointFE9calculateEi@Base 4:4.3.4
 _ZN4KWin6initGLEv@Base 4:4.3.4
 _ZN4KWin7effectsE@Base 4:4.3.4
 _ZN4KWin7initGLXEv@Base 4:4.3.4
 _ZN4KWin8GLShader10initStaticEv@Base 4:4.3.4
 _ZN4KWin8GLShader10setUniformEPKcf@Base 4:4.4.0
 _ZN4KWin8GLShader10setUniformEPKci@Base 4:4.4.0
 _ZN4KWin8GLShader12setAttributeEPKcf@Base 4:4.4.0
 _ZN4KWin8GLShader12textureWidthEv@Base 4:4.3.4
 _ZN4KWin8GLShader13loadFromFilesERK7QStringS3_@Base 4:4.3.4
 _ZN4KWin8GLShader13textureHeightEv@Base 4:4.3.4
 _ZN4KWin8GLShader15setTextureWidthEf@Base 4:4.3.4
 _ZN4KWin8GLShader15uniformLocationEPKc@Base 4:4.4.0
 _ZN4KWin8GLShader16setTextureHeightEf@Base 4:4.3.4
 _ZN4KWin8GLShader17attributeLocationEPKc@Base 4:4.4.0
 _ZN4KWin8GLShader22mVertexShaderSupportedE@Base 4:4.3.4
 _ZN4KWin8GLShader24mFragmentShaderSupportedE@Base 4:4.3.4
 _ZN4KWin8GLShader4bindEv@Base 4:4.3.4
 _ZN4KWin8GLShader4loadERK7QStringS3_@Base 4:4.3.4
 _ZN4KWin8GLShader6unbindEv@Base 4:4.3.4
 _ZN4KWin8GLShaderC1ERK7QStringS3_@Base 4:4.3.4
 _ZN4KWin8GLShaderC2ERK7QStringS3_@Base 4:4.3.4
 _ZN4KWin8GLShaderD1Ev@Base 4:4.3.4
 _ZN4KWin8GLShaderD2Ev@Base 4:4.3.4
 _ZN4KWin8Motion1DC1ERKS0_@Base 4:4.3.4
 _ZN4KWin8Motion1DC1Eddd@Base 4:4.3.4
 _ZN4KWin8Motion1DC2ERKS0_@Base 4:4.3.4
 _ZN4KWin8Motion1DC2Eddd@Base 4:4.3.4
 _ZN4KWin8Motion1DD1Ev@Base 4:4.3.4
 _ZN4KWin8Motion1DD2Ev@Base 4:4.3.4
 _ZN4KWin8Motion2DC1E7QPointFdd@Base 4:4.3.4
 _ZN4KWin8Motion2DC1ERKS0_@Base 4:4.3.4
 _ZN4KWin8Motion2DC2E7QPointFdd@Base 4:4.3.4
 _ZN4KWin8Motion2DC2ERKS0_@Base 4:4.3.4
 _ZN4KWin8Motion2DD1Ev@Base 4:4.3.4
 _ZN4KWin8Motion2DD2Ev@Base 4:4.3.4
 _ZN4KWin8TimeLine10removeTimeEi@Base 4:4.3.4
 _ZN4KWin8TimeLine11addProgressEd@Base 4:4.3.4
 _ZN4KWin8TimeLine11setDurationEi@Base 4:4.3.4
 _ZN4KWin8TimeLine11setProgressEd@Base 4:4.3.4
 _ZN4KWin8TimeLine13setCurveShapeENS0_10CurveShapeE@Base 4:4.3.4
 _ZN4KWin8TimeLine7addTimeEi@Base 4:4.3.4
 _ZN4KWin8TimeLineC1ERKS0_@Base 4:4.3.4
 _ZN4KWin8TimeLineC1Ei@Base 4:4.3.4
 _ZN4KWin8TimeLineC2ERKS0_@Base 4:4.3.4
 _ZN4KWin8TimeLineC2Ei@Base 4:4.3.4
 _ZN4KWin8TimeLineD1Ev@Base 4:4.3.4
 _ZN4KWin8TimeLineD2Ev@Base 4:4.3.4
 _ZN4KWin9GLTexture10initStaticEv@Base 4:4.3.4
 _ZN4KWin9GLTexture10setTextureEj@Base 4:4.3.4
 _ZN4KWin9GLTexture11setWrapModeEj@Base 4:4.3.4
 _ZN4KWin9GLTexture12enableFilterEv@Base 4:4.3.4
 _ZN4KWin9GLTexture20mSaturationSupportedE@Base 4:4.3.4
 _ZN4KWin9GLTexture21mNPOTTextureSupportedE@Base 4:4.3.4
 _ZN4KWin9GLTexture25enableNormalizedTexCoordsEv@Base 4:4.3.4
 _ZN4KWin9GLTexture26disableNormalizedTexCoordsEv@Base 4:4.3.4
 _ZN4KWin9GLTexture27enableUnnormalizedTexCoordsEv@Base 4:4.3.4
 _ZN4KWin9GLTexture27mFramebufferObjectSupportedE@Base 4:4.3.4
 _ZN4KWin9GLTexture28disableUnnormalizedTexCoordsEv@Base 4:4.3.4
 _ZN4KWin9GLTexture4bindEv@Base 4:4.3.4
 _ZN4KWin9GLTexture4initEv@Base 4:4.3.4
 _ZN4KWin9GLTexture4loadERK6QImagej@Base 4:4.3.4
 _ZN4KWin9GLTexture4loadERK7QPixmapj@Base 4:4.3.4
 _ZN4KWin9GLTexture4loadERK7QString@Base 4:4.3.4
 _ZN4KWin9GLTexture6renderE7QRegionRK5QRect@Base 4:4.3.4
 _ZN4KWin9GLTexture6unbindEv@Base 4:4.3.4
 _ZN4KWin9GLTexture7discardEv@Base 4:4.3.4
 _ZN4KWin9GLTexture8setDirtyEv@Base 4:4.3.4
 _ZN4KWin9GLTexture9setFilterEj@Base 4:4.3.4
 _ZN4KWin9GLTexture9setTargetEj@Base 4:4.3.4
 _ZN4KWin9GLTextureC1ERK6QImagej@Base 4:4.3.4
 _ZN4KWin9GLTextureC1ERK7QPixmapj@Base 4:4.3.4
 _ZN4KWin9GLTextureC1ERK7QString@Base 4:4.3.4
 _ZN4KWin9GLTextureC1Eii@Base 4:4.3.4
 _ZN4KWin9GLTextureC1Ev@Base 4:4.3.4
 _ZN4KWin9GLTextureC2ERK6QImagej@Base 4:4.3.4
 _ZN4KWin9GLTextureC2ERK7QPixmapj@Base 4:4.3.4
 _ZN4KWin9GLTextureC2ERK7QString@Base 4:4.3.4
 _ZN4KWin9GLTextureC2Eii@Base 4:4.3.4
 _ZN4KWin9GLTextureC2Ev@Base 4:4.3.4
 _ZN4KWin9GLTextureD0Ev@Base 4:4.3.4
 _ZN4KWin9GLTextureD1Ev@Base 4:4.3.4
 _ZN4KWin9GLTextureD2Ev@Base 4:4.3.4
 _ZNK4KWin10GLPlatform11glslVersionEv@Base 4:4.5.90
 _ZNK4KWin10GLPlatform11mesaVersionEv@Base 4:4.5.90
 _ZNK4KWin10GLPlatform12isMesaDriverEv@Base 4:4.5.90
 _ZNK4KWin10GLPlatform12printResultsEv@Base 4:4.5.90
 _ZNK4KWin10GLPlatform13driverVersionEv@Base 4:4.5.90
 _ZNK4KWin10GLPlatform13kernelVersionEv@Base 4:4.5.90
 _ZNK4KWin10GLPlatform13serverVersionEv@Base 4:4.5.90
 _ZNK4KWin10GLPlatform14galliumVersionEv@Base 4:4.5.90
 _ZNK4KWin10GLPlatform6driverEv@Base 4:4.5.90
 _ZNK4KWin10GLPlatform7isIntelEv@Base 4:4.5.90
 _ZNK4KWin10GLPlatform8isNvidiaEv@Base 4:4.5.90
 _ZNK4KWin10GLPlatform8isRadeonEv@Base 4:4.5.90
 _ZNK4KWin10GLPlatform8supportsENS_9GLFeatureE@Base 4:4.5.90
 _ZNK4KWin10GLPlatform9chipClassEv@Base 4:4.5.90
 _ZNK4KWin10GLPlatform9glVersionEv@Base 4:4.5.90
 _ZNK4KWin10WindowQuad11makeSubQuadEdddd@Base 4:4.3.4
 _ZNK4KWin10WindowQuad12smoothNeededEv@Base 4:4.3.4
#MISSING: 4:4.5.90# _ZNK4KWin11EffectFrame10metaObjectEv@Base 4:4.3.4
 _ZNK4KWin11EffectFrame11isCrossFadeEv@Base 4:4.5.90
 _ZNK4KWin11EffectFrame17crossFadeProgressEv@Base 4:4.5.90
 _ZNK4KWin12EffectWindow11isOnDesktopEi@Base 4:4.3.4
 _ZNK4KWin12EffectWindow13hasDecorationEv@Base 4:4.3.4
 _ZNK4KWin12EffectWindow18isOnCurrentDesktopEv@Base 4:4.3.4
 _ZNK4KWin12PaintClipper8Iterator12boundingRectEv@Base 4:4.3.4
 _ZNK4KWin12ShaderEffect6shaderEv@Base 4:4.3.4
 _ZNK4KWin12ShaderEffect9isEnabledEv@Base 4:4.3.4
 _ZNK4KWin14EffectsHandler15compositingTypeEv@Base 4:4.3.4
 _ZNK4KWin14EffectsHandler19saturationSupportedEv@Base 4:4.3.4
 _ZNK4KWin14WindowQuadList10makeArraysEPPfS2_@Base 4:4.3.4
 _ZNK4KWin14WindowQuadList12smoothNeededEv@Base 4:4.3.4
 _ZNK4KWin14WindowQuadList13isTransformedEv@Base 4:4.3.4
 _ZNK4KWin14WindowQuadList15makeRegularGridEii@Base 4:4.3.4
 _ZNK4KWin14WindowQuadList6selectENS_14WindowQuadTypeE@Base 4:4.3.4
 _ZNK4KWin14WindowQuadList8makeGridEi@Base 4:4.3.4
 _ZNK4KWin14WindowQuadList8splitAtXEd@Base 4:4.3.4
 _ZNK4KWin14WindowQuadList8splitAtYEd@Base 4:4.3.4
 _ZNK4KWin14WindowQuadList9filterOutENS_14WindowQuadTypeE@Base 4:4.3.4
 _ZNK4KWin19WindowMotionManager13windowAtPointE6QPointb@Base 4:4.3.4
 _ZNK4KWin19WindowMotionManager14targetGeometryEPNS_12EffectWindowE@Base 4:4.3.4
 _ZNK4KWin19WindowMotionManager19transformedGeometryEPNS_12EffectWindowE@Base 4:4.3.4
 _ZNK4KWin8TimeLine12valueForTimeEi@Base 4:4.3.4
 _ZNK4KWin8TimeLine4timeEv@Base 4:4.3.4
 _ZNK4KWin8TimeLine5valueEv@Base 4:4.3.4
 _ZNK4KWin8TimeLine8durationEv@Base 4:4.3.4
 _ZNK4KWin8TimeLine8progressEv@Base 4:4.3.4
 _ZNK4KWin9GLTexture17convertToGLFormatERK6QImage@Base 4:4.3.4
 _ZNK4KWin9GLTexture4sizeEv@Base 4:4.3.4
 _ZNK4KWin9GLTexture6filterEv@Base 4:4.3.4
 _ZNK4KWin9GLTexture6isNullEv@Base 4:4.3.4
 _ZNK4KWin9GLTexture6targetEv@Base 4:4.3.4
 _ZNK4KWin9GLTexture7isDirtyEv@Base 4:4.3.4
 _ZNK4KWin9GLTexture7textureEv@Base 4:4.3.4
 _ZSt4leftRSt8ios_base@Base 4:4.5.90
 _ZTIN4KWin11EffectFrameE@Base 4:4.3.4
 _ZTIN4KWin12EffectWindowE@Base 4:4.3.4
 _ZTIN4KWin12ShaderEffectE@Base 4:4.3.4
 _ZTIN4KWin14EffectsHandlerE@Base 4:4.3.4
 _ZTIN4KWin17EffectWindowGroupE@Base 4:4.3.4
 _ZTIN4KWin21GlobalShortcutsEditorE@Base 4:4.3.4
 _ZTIN4KWin6EffectE@Base 4:4.3.4
 _ZTIN4KWin9GLTextureE@Base 4:4.3.4
 _ZTSN4KWin11EffectFrameE@Base 4:4.3.4
 _ZTSN4KWin12EffectWindowE@Base 4:4.3.4
 _ZTSN4KWin12ShaderEffectE@Base 4:4.3.4
 _ZTSN4KWin14EffectsHandlerE@Base 4:4.3.4
 _ZTSN4KWin17EffectWindowGroupE@Base 4:4.3.4
 _ZTSN4KWin21GlobalShortcutsEditorE@Base 4:4.3.4
 _ZTSN4KWin6EffectE@Base 4:4.3.4
 _ZTSN4KWin9GLTextureE@Base 4:4.3.4
 _ZTVN4KWin11EffectFrameE@Base 4:4.3.4
 _ZTVN4KWin12EffectWindowE@Base 4:4.3.4
 _ZTVN4KWin12ShaderEffectE@Base 4:4.3.4
 _ZTVN4KWin14EffectsHandlerE@Base 4:4.3.4
 _ZTVN4KWin17EffectWindowGroupE@Base 4:4.3.4
 _ZTVN4KWin21GlobalShortcutsEditorE@Base 4:4.3.4
 _ZTVN4KWin6EffectE@Base 4:4.3.4
 _ZTVN4KWin9GLTextureE@Base 4:4.3.4
