# SymbolsHelper-Confirmed: 4:4.4.0 amd64 i386
libksgrd.so.4 libksgrd4 #MINVER#
 _ZN5KSGRD11SensorAgent11qt_metacallEN11QMetaObject4CallEiPPv@Base 4:4.3.4
 _ZN5KSGRD11SensorAgent11qt_metacastEPKc@Base 4:4.3.4
 _ZN5KSGRD11SensorAgent11reconfigureEPKS0_@Base 4:4.3.4
 _ZN5KSGRD11SensorAgent11sendRequestERK7QStringPNS_12SensorClientEi@Base 4:4.3.4
 _ZN5KSGRD11SensorAgent11setHostNameERK7QString@Base 4:4.3.4
 _ZN5KSGRD11SensorAgent13processAnswerEPKci@Base 4:4.3.4
 _ZN5KSGRD11SensorAgent13sensorManagerEv@Base 4:4.3.4
 _ZN5KSGRD11SensorAgent14executeCommandEv@Base 4:4.3.4
 _ZN5KSGRD11SensorAgent15setDaemonOnLineEb@Base 4:4.3.4
 _ZN5KSGRD11SensorAgent16disconnectClientEPNS_12SensorClientE@Base 4:4.3.4
 _ZN5KSGRD11SensorAgent16staticMetaObjectE@Base 4:4.3.4
 _ZN5KSGRD11SensorAgent19setReasonForOfflineERK7QString@Base 4:4.3.4
 _ZN5KSGRD11SensorAgentC1EPNS_13SensorManagerE@Base 4:4.3.4
 _ZN5KSGRD11SensorAgentC2EPNS_13SensorManagerE@Base 4:4.3.4
 _ZN5KSGRD11SensorAgentD0Ev@Base 4:4.3.4
 _ZN5KSGRD11SensorAgentD1Ev@Base 4:4.3.4
 _ZN5KSGRD11SensorAgentD2Ev@Base 4:4.3.4
 _ZN5KSGRD13SensorManager11isConnectedERK7QString@Base 4:4.3.4
 _ZN5KSGRD13SensorManager11qt_metacallEN11QMetaObject4CallEiPPv@Base 4:4.3.4
 _ZN5KSGRD13SensorManager11qt_metacastEPKc@Base 4:4.3.4
 _ZN5KSGRD13SensorManager11reconfigureEPKNS_11SensorAgentE@Base 4:4.3.4
 _ZN5KSGRD13SensorManager11retranslateEv@Base 4:4.3.4
 _ZN5KSGRD13SensorManager11sendRequestERK7QStringS3_PNS_12SensorClientEi@Base 4:4.3.4
 _ZN5KSGRD13SensorManager12MessageEventC1ERK7QString@Base 4:4.3.4
 _ZN5KSGRD13SensorManager12MessageEventC2ERK7QString@Base 4:4.3.4
 _ZN5KSGRD13SensorManager13resynchronizeERK7QString@Base 4:4.3.4
 _ZN5KSGRD13SensorManager14readPropertiesERK12KConfigGroup@Base 4:4.3.4
 _ZN5KSGRD13SensorManager14savePropertiesER12KConfigGroup@Base 4:4.3.4
 _ZN5KSGRD13SensorManager14setBroadcasterEP7QWidget@Base 4:4.3.4
 _ZN5KSGRD13SensorManager16disconnectClientEPNS_12SensorClientE@Base 4:4.3.4
 _ZN5KSGRD13SensorManager16staticMetaObjectE@Base 4:4.3.4
 _ZN5KSGRD13SensorManager18hostConnectionLostERK7QString@Base 4:4.3.4
 _ZN5KSGRD13SensorManager6engageERK7QStringS3_S3_i@Base 4:4.3.4
 _ZN5KSGRD13SensorManager6updateEv@Base 4:4.3.4
 _ZN5KSGRD13SensorManager8hostInfoERK7QStringRS1_S4_Ri@Base 4:4.3.4
 _ZN5KSGRD13SensorManager9disengageEPNS_11SensorAgentE@Base 4:4.3.4
 _ZN5KSGRD13SensorManager9disengageERK7QString@Base 4:4.3.4
 _ZN5KSGRD13SensorManager9hostAddedEPNS_11SensorAgentERK7QString@Base 4:4.3.4
 _ZN5KSGRD13SensorManagerC1EP7QObject@Base 4:4.3.4
 _ZN5KSGRD13SensorManagerC2EP7QObject@Base 4:4.3.4
 _ZN5KSGRD13SensorManagerD0Ev@Base 4:4.3.4
 _ZN5KSGRD13SensorManagerD1Ev@Base 4:4.3.4
 _ZN5KSGRD13SensorManagerD2Ev@Base 4:4.3.4
 _ZN5KSGRD9SensorMgrE@Base 4:4.3.4
 _ZNK5KSGRD11SensorAgent10metaObjectEv@Base 4:4.3.4
 _ZNK5KSGRD11SensorAgent12daemonOnLineEv@Base 4:4.3.4
 _ZNK5KSGRD11SensorAgent16reasonForOfflineEv@Base 4:4.3.4
 _ZNK5KSGRD11SensorAgent8hostNameEv@Base 4:4.3.4
 _ZNK5KSGRD13SensorManager10metaObjectEv@Base 4:4.3.4
 _ZNK5KSGRD13SensorManager12MessageEvent7messageEv@Base 4:4.3.4
 _ZNK5KSGRD13SensorManager13translateUnitERK7QString@Base 4:4.3.4
 _ZNK5KSGRD13SensorManager15translateSensorERK7QString@Base 4:4.3.4
 _ZNK5KSGRD13SensorManager19translateSensorPathERK7QString@Base 4:4.3.4
 _ZNK5KSGRD13SensorManager19translateSensorTypeERK7QString@Base 4:4.3.4
 _ZNK5KSGRD13SensorManager5countEv@Base 4:4.4.0
 _ZNK5KSGRD13SensorManager6notifyERK7QString@Base 4:4.3.4
 _ZNK5KSGRD13SensorManager8hostNameEPKNS_11SensorAgentE@Base 4:4.3.4
 _ZTIN5KSGRD11SensorAgentE@Base 4:4.3.4
 _ZTIN5KSGRD13SensorManager12MessageEventE@Base 4:4.3.4
 _ZTIN5KSGRD13SensorManagerE@Base 4:4.3.4
 _ZTSN5KSGRD11SensorAgentE@Base 4:4.3.4
 _ZTSN5KSGRD13SensorManager12MessageEventE@Base 4:4.3.4
 _ZTSN5KSGRD13SensorManagerE@Base 4:4.3.4
 _ZTVN5KSGRD11SensorAgentE@Base 4:4.3.4
 _ZTVN5KSGRD13SensorManager12MessageEventE@Base 4:4.3.4
 _ZTVN5KSGRD13SensorManagerE@Base 4:4.3.4
