# SymbolsHelper-Confirmed: 4:4.4.0 amd64 i386
libkdecorations.so.4 libkdecorations4 #MINVER#
* Build-Depends-Package: kdebase-workspace-dev
 _ZN11KDecoration10setDesktopEi@Base 4:4.3.4
 _ZN11KDecoration11closeWindowEv@Base 4:4.3.4
 _ZN11KDecoration11grabXServerEv@Base 4:4.3.4
 _ZN11KDecoration11qt_metacallEN11QMetaObject4CallEiPPv@Base 4:4.3.4
 _ZN11KDecoration11qt_metacastEPKc@Base 4:4.3.4
 _ZN11KDecoration12setKeepAboveEb@Base 4:4.3.4
 _ZN11KDecoration12setKeepBelowEb@Base 4:4.3.4
 _ZN11KDecoration12windowDockedEN18KDecorationDefines8PositionE@Base 4:4.3.4
 _ZN11KDecoration13setMainWidgetEP7QWidget@Base 4:4.3.4
 _ZN11KDecoration13ungrabXServerEv@Base 4:4.3.4
 _ZN11KDecoration14showWindowMenuE6QPoint@Base 4:4.3.4
 _ZN11KDecoration14showWindowMenuERK5QRect@Base 4:4.3.4
 _ZN11KDecoration15showContextHelpEv@Base 4:4.3.4
 _ZN11KDecoration16createMainWidgetE6QFlagsIN2Qt10WindowTypeEE@Base 4:4.3.4
 _ZN11KDecoration16keepAboveChangedEb@Base 4:4.3.4
 _ZN11KDecoration16keepBelowChangedEb@Base 4:4.3.4
 _ZN11KDecoration16staticMetaObjectE@Base 4:4.3.4
 _ZN11KDecoration19toggleOnAllDesktopsEv@Base 4:4.3.4
 _ZN11KDecoration20emitKeepAboveChangedEb@Base 4:4.3.4
 _ZN11KDecoration20emitKeepBelowChangedEb@Base 4:4.3.4
 _ZN11KDecoration22performWindowOperationEN18KDecorationDefines15WindowOperationE@Base 4:4.3.4
 _ZN11KDecoration22processMousePressEventEP11QMouseEvent@Base 4:4.3.4
 _ZN11KDecoration25titlebarDblClickOperationEv@Base 4:4.3.4
 _ZN11KDecoration27titlebarMouseWheelOperationEi@Base 4:4.3.4
 _ZN11KDecoration5resetEm@Base 4:4.3.4
 _ZN11KDecoration7optionsEv@Base 4:4.3.4
 _ZN11KDecoration7setMaskERK7QRegioni@Base 4:4.3.4
 _ZN11KDecoration8maximizeE6QFlagsIN2Qt11MouseButtonEE@Base 4:4.3.4
 _ZN11KDecoration8maximizeEN18KDecorationDefines12MaximizeModeE@Base 4:4.3.4
 _ZN11KDecoration8minimizeEv@Base 4:4.3.4
 _ZN11KDecoration8options_E@Base 4:4.3.4
 _ZN11KDecoration8setShadeEb@Base 4:4.3.4
 _ZN11KDecoration9clearMaskEv@Base 4:4.3.4
 _ZN11KDecoration9drawboundERK5QRectb@Base 4:4.3.4
 _ZN11KDecorationC1EP17KDecorationBridgeP18KDecorationFactory@Base 4:4.3.4
 _ZN11KDecorationC2EP17KDecorationBridgeP18KDecorationFactory@Base 4:4.3.4
 _ZN11KDecorationD0Ev@Base 4:4.3.4
 _ZN11KDecorationD1Ev@Base 4:4.3.4
 _ZN11KDecorationD2Ev@Base 4:4.3.4
 _ZN17KCommonDecoration10addButtonsER7QVectorIP23KCommonDecorationButtonERK7QStringb@Base 4:4.3.4
 _ZN17KCommonDecoration10decorationEv@Base 4:4.3.4
 _ZN17KCommonDecoration10iconChangeEv@Base 4:4.3.4
 _ZN17KCommonDecoration10setDesktopEi@Base 4:4.3.4
 _ZN17KCommonDecoration10wheelEventEP11QWheelEvent@Base 4:4.3.4
 _ZN17KCommonDecoration11closeWindowEv@Base 4:4.3.4
 _ZN17KCommonDecoration11cornerShapeENS_12WindowCornerE@Base 4:4.3.4
 _ZN17KCommonDecoration11eventFilterEP7QObjectP6QEvent@Base 4:4.3.4
 _ZN17KCommonDecoration11grabXServerEv@Base 4:4.3.4
 _ZN17KCommonDecoration11qt_metacallEN11QMetaObject4CallEiPPv@Base 4:4.3.4
 _ZN17KCommonDecoration11qt_metacastEPKc@Base 4:4.3.4
 _ZN17KCommonDecoration11resetLayoutEv@Base 4:4.3.4
 _ZN17KCommonDecoration11resizeEventEP12QResizeEvent@Base 4:4.3.4
 _ZN17KCommonDecoration11shadeChangeEv@Base 4:4.3.4
 _ZN17KCommonDecoration12activeChangeEv@Base 4:4.3.4
 _ZN17KCommonDecoration12objDestroyedEP7QObject@Base 4:4.4.0
 _ZN17KCommonDecoration12setKeepAboveEb@Base 4:4.3.4
 _ZN17KCommonDecoration12setKeepBelowEb@Base 4:4.3.4
 _ZN17KCommonDecoration12slotMaximizeEv@Base 4:4.3.4
 _ZN17KCommonDecoration12windowDockedEN18KDecorationDefines8PositionE@Base 4:4.3.4
 _ZN17KCommonDecoration13captionChangeEv@Base 4:4.3.4
 _ZN17KCommonDecoration13desktopChangeEv@Base 4:4.3.4
 _ZN17KCommonDecoration13setMainWidgetEP7QWidget@Base 4:4.3.4
 _ZN17KCommonDecoration13slotKeepAboveEv@Base 4:4.3.4
 _ZN17KCommonDecoration13slotKeepBelowEv@Base 4:4.3.4
 _ZN17KCommonDecoration13ungrabXServerEv@Base 4:4.3.4
 _ZN17KCommonDecoration13updateCaptionEv@Base 4:4.3.4
 _ZN17KCommonDecoration14maximizeChangeEv@Base 4:4.3.4
 _ZN17KCommonDecoration14showWindowMenuE6QPoint@Base 4:4.3.4
 _ZN17KCommonDecoration14showWindowMenuERK5QRect@Base 4:4.3.4
 _ZN17KCommonDecoration15keepAboveChangeEb@Base 4:4.3.4
 _ZN17KCommonDecoration15keepBelowChangeEb@Base 4:4.3.4
 _ZN17KCommonDecoration15showContextHelpEv@Base 4:4.3.4
 _ZN17KCommonDecoration16createMainWidgetE6QFlagsIN2Qt10WindowTypeEE@Base 4:4.3.4
 _ZN17KCommonDecoration16keepAboveChangedEb@Base 4:4.3.4
 _ZN17KCommonDecoration16keepBelowChangedEb@Base 4:4.3.4
 _ZN17KCommonDecoration16staticMetaObjectE@Base 4:4.3.4
 _ZN17KCommonDecoration17calcHiddenButtonsEv@Base 4:4.3.4
 _ZN17KCommonDecoration17menuButtonPressedEv@Base 4:4.3.4
 _ZN17KCommonDecoration17updateWindowShapeEv@Base 4:4.3.4
 _ZN17KCommonDecoration18menuButtonReleasedEv@Base 4:4.3.4
 _ZN17KCommonDecoration19toggleOnAllDesktopsEv@Base 4:4.3.4
 _ZN17KCommonDecoration21mouseDoubleClickEventEP11QMouseEvent@Base 4:4.3.4
 _ZN17KCommonDecoration22performWindowOperationEN18KDecorationDefines15WindowOperationE@Base 4:4.3.4
 _ZN17KCommonDecoration22processMousePressEventEP11QMouseEvent@Base 4:4.3.4
 _ZN17KCommonDecoration25titlebarDblClickOperationEv@Base 4:4.3.4
 _ZN17KCommonDecoration27titlebarMouseWheelOperationEi@Base 4:4.3.4
 _ZN17KCommonDecoration4initEv@Base 4:4.3.4
 _ZN17KCommonDecoration4showEv@Base 4:4.3.4
 _ZN17KCommonDecoration5resetEm@Base 4:4.3.4
 _ZN17KCommonDecoration6resizeERK5QSize@Base 4:4.3.4
 _ZN17KCommonDecoration6widgetEv@Base 4:4.3.4
 _ZN17KCommonDecoration7optionsEv@Base 4:4.3.4
 _ZN17KCommonDecoration7setMaskERK7QRegioni@Base 4:4.3.4
 _ZN17KCommonDecoration8maximizeE6QFlagsIN2Qt11MouseButtonEE@Base 4:4.3.4
 _ZN17KCommonDecoration8maximizeEN18KDecorationDefines12MaximizeModeE@Base 4:4.3.4
 _ZN17KCommonDecoration8minimizeEv@Base 4:4.3.4
 _ZN17KCommonDecoration8setShadeEb@Base 4:4.3.4
 _ZN17KCommonDecoration9clearMaskEv@Base 4:4.3.4
 _ZN17KCommonDecoration9drawboundERK5QRectb@Base 4:4.3.4
 _ZN17KCommonDecoration9slotShadeEv@Base 4:4.3.4
 _ZN17KCommonDecorationC1EP17KDecorationBridgeP18KDecorationFactory@Base 4:4.3.4
 _ZN17KCommonDecorationC2EP17KDecorationBridgeP18KDecorationFactory@Base 4:4.3.4
 _ZN17KCommonDecorationD0Ev@Base 4:4.3.4
 _ZN17KCommonDecorationD1Ev@Base 4:4.3.4
 _ZN17KCommonDecorationD2Ev@Base 4:4.3.4
 _ZN18KDecorationDefines27clientGroupItemDragMimeTypeEv@Base 4:4.4.0
 _ZN18KDecorationFactory13addDecorationEP11KDecoration@Base 4:4.3.4
 _ZN18KDecorationFactory16removeDecorationEP11KDecoration@Base 4:4.3.4
 _ZN18KDecorationFactory16resetDecorationsEm@Base 4:4.3.4
 _ZN18KDecorationFactory17checkRequirementsEP19KDecorationProvides@Base 4:4.3.4
 _ZN18KDecorationFactory5resetEm@Base 4:4.3.4
 _ZN18KDecorationFactoryC1Ev@Base 4:4.3.4
 _ZN18KDecorationFactoryC2Ev@Base 4:4.3.4
 _ZN18KDecorationFactoryD0Ev@Base 4:4.3.4
 _ZN18KDecorationFactoryD1Ev@Base 4:4.3.4
 _ZN18KDecorationFactoryD2Ev@Base 4:4.3.4
 _ZN18KDecorationOptions13setBorderSizeEN18KDecorationDefines10BorderSizeE@Base 4:4.3.4
 _ZN18KDecorationOptions14updateSettingsEP7KConfig@Base 4:4.3.4
 _ZN18KDecorationOptions19setTitleButtonsLeftERK7QString@Base 4:4.3.4
 _ZN18KDecorationOptions20setTitleButtonsRightERK7QString@Base 4:4.3.4
 _ZN18KDecorationOptions23defaultTitleButtonsLeftEv@Base 4:4.3.4
 _ZN18KDecorationOptions23setOpMaxButtonLeftClickEN18KDecorationDefines15WindowOperationE@Base 4:4.3.4
 _ZN18KDecorationOptions24defaultTitleButtonsRightEv@Base 4:4.3.4
 _ZN18KDecorationOptions24setCustomButtonPositionsEb@Base 4:4.3.4
 _ZN18KDecorationOptions24setOpMaxButtonRightClickEN18KDecorationDefines15WindowOperationE@Base 4:4.3.4
 _ZN18KDecorationOptions25setOpMaxButtonMiddleClickEN18KDecorationDefines15WindowOperationE@Base 4:4.3.4
 _ZN18KDecorationOptionsC1Ev@Base 4:4.3.4
 _ZN18KDecorationOptionsC2Ev@Base 4:4.3.4
 _ZN18KDecorationOptionsD0Ev@Base 4:4.3.4
 _ZN18KDecorationOptionsD1Ev@Base 4:4.3.4
 _ZN18KDecorationOptionsD2Ev@Base 4:4.3.4
 _ZN18KDecorationPlugins10loadPluginE7QString@Base 4:4.3.4
 _ZN18KDecorationPlugins13currentPluginEv@Base 4:4.3.4
 _ZN18KDecorationPlugins16createDecorationEP17KDecorationBridge@Base 4:4.3.4
 _ZN18KDecorationPlugins21destroyPreviousPluginEv@Base 4:4.3.4
 _ZN18KDecorationPlugins5errorERK7QString@Base 4:4.3.4
 _ZN18KDecorationPlugins5resetEm@Base 4:4.3.4
 _ZN18KDecorationPlugins7factoryEv@Base 4:4.3.4
 _ZN18KDecorationPluginsC1ERK10KSharedPtrI13KSharedConfigE@Base 4:4.3.4
 _ZN18KDecorationPluginsC2ERK10KSharedPtrI13KSharedConfigE@Base 4:4.3.4
 _ZN18KDecorationPluginsD0Ev@Base 4:4.3.4
 _ZN18KDecorationPluginsD1Ev@Base 4:4.3.4
 _ZN18KDecorationPluginsD2Ev@Base 4:4.3.4
 _ZN19KDecorationUnstable11qt_metacallEN11QMetaObject4CallEiPPv@Base 4:4.3.4
 _ZN19KDecorationUnstable11qt_metacastEPKc@Base 4:4.3.4
 _ZN19KDecorationUnstable16staticMetaObjectE@Base 4:4.3.4
 _ZN19KDecorationUnstable17displayClientMenuEiRK6QPoint@Base 4:4.4.0
 _ZN19KDecorationUnstable19isClientGroupActiveEv@Base 4:4.4.0
 _ZN19KDecorationUnstable20closeClientGroupItemEi@Base 4:4.4.0
 _ZN19KDecorationUnstable21closeAllInClientGroupEv@Base 4:4.4.0
 _ZN19KDecorationUnstable21moveItemInClientGroupEii@Base 4:4.4.0
 _ZN19KDecorationUnstable21moveItemToClientGroupEli@Base 4:4.4.0
 _ZN19KDecorationUnstable21removeFromClientGroupEiRK5QRect@Base 4:4.4.0
 _ZN19KDecorationUnstable22visibleClientGroupItemEv@Base 4:4.4.0
 _ZN19KDecorationUnstable23buttonToWindowOperationE6QFlagsIN2Qt11MouseButtonEE@Base 4:4.4.0
 _ZN19KDecorationUnstable25setVisibleClientGroupItemEi@Base 4:4.4.0
 _ZN19KDecorationUnstable6itemIdEi@Base 4:4.4.0
 _ZN19KDecorationUnstableC1EP17KDecorationBridgeP18KDecorationFactory@Base 4:4.3.4
 _ZN19KDecorationUnstableC2EP17KDecorationBridgeP18KDecorationFactory@Base 4:4.3.4
 _ZN19KDecorationUnstableD0Ev@Base 4:4.3.4
 _ZN19KDecorationUnstableD1Ev@Base 4:4.3.4
 _ZN19KDecorationUnstableD2Ev@Base 4:4.3.4
 _ZN23KCommonDecorationButton10setTipTextERK7QString@Base 4:4.3.4
 _ZN23KCommonDecorationButton11qt_metacallEN11QMetaObject4CallEiPPv@Base 4:4.3.4
 _ZN23KCommonDecorationButton11qt_metacastEPKc@Base 4:4.3.4
 _ZN23KCommonDecorationButton15mousePressEventEP11QMouseEvent@Base 4:4.3.4
 _ZN23KCommonDecorationButton15setToggleButtonEb@Base 4:4.3.4
 _ZN23KCommonDecorationButton16staticMetaObjectE@Base 4:4.3.4
 _ZN23KCommonDecorationButton17mouseReleaseEventEP11QMouseEvent@Base 4:4.3.4
 _ZN23KCommonDecorationButton17setRealizeButtonsEi@Base 4:4.3.4
 _ZN23KCommonDecorationButton5setOnEb@Base 4:4.3.4
 _ZN23KCommonDecorationButton7setLeftEb@Base 4:4.3.4
 _ZN23KCommonDecorationButton7setSizeERK5QSize@Base 4:4.3.4
 _ZN23KCommonDecorationButtonC1E10ButtonTypeP17KCommonDecoration@Base 4:4.3.4
 _ZN23KCommonDecorationButtonC2E10ButtonTypeP17KCommonDecoration@Base 4:4.3.4
 _ZN23KCommonDecorationButtonD0Ev@Base 4:4.3.4
 _ZN23KCommonDecorationButtonD1Ev@Base 4:4.3.4
 _ZN23KCommonDecorationButtonD2Ev@Base 4:4.3.4
 _ZN25KCommonDecorationUnstable11eventFilterEP7QObjectP6QEvent@Base 4:4.4.0
 _ZN25KCommonDecorationUnstable11qt_metacallEN11QMetaObject4CallEiPPv@Base 4:4.3.4
 _ZN25KCommonDecorationUnstable11qt_metacastEPKc@Base 4:4.3.4
 _ZN25KCommonDecorationUnstable16staticMetaObjectE@Base 4:4.3.4
 _ZN25KCommonDecorationUnstable17displayClientMenuEiRK6QPoint@Base 4:4.4.0
 _ZN25KCommonDecorationUnstable19isClientGroupActiveEv@Base 4:4.4.0
 _ZN25KCommonDecorationUnstable20closeClientGroupItemEi@Base 4:4.4.0
 _ZN25KCommonDecorationUnstable21closeAllInClientGroupEv@Base 4:4.4.0
 _ZN25KCommonDecorationUnstable21moveItemInClientGroupEii@Base 4:4.4.0
 _ZN25KCommonDecorationUnstable21moveItemToClientGroupEli@Base 4:4.4.0
 _ZN25KCommonDecorationUnstable21removeFromClientGroupEiRK5QRect@Base 4:4.4.0
 _ZN25KCommonDecorationUnstable22visibleClientGroupItemEv@Base 4:4.4.0
 _ZN25KCommonDecorationUnstable23buttonToWindowOperationE6QFlagsIN2Qt11MouseButtonEE@Base 4:4.4.0
 _ZN25KCommonDecorationUnstable25setVisibleClientGroupItemEi@Base 4:4.4.0
 _ZN25KCommonDecorationUnstable6itemIdEi@Base 4:4.4.0
 _ZN25KCommonDecorationUnstableC1EP17KDecorationBridgeP18KDecorationFactory@Base 4:4.3.4
 _ZN25KCommonDecorationUnstableC2EP17KDecorationBridgeP18KDecorationFactory@Base 4:4.3.4
 _ZN25KCommonDecorationUnstableD0Ev@Base 4:4.3.4
 _ZN25KCommonDecorationUnstableD1Ev@Base 4:4.3.4
 _ZN25KCommonDecorationUnstableD2Ev@Base 4:4.3.4
 _ZNK11KDecoration10isSetShadeEv@Base 4:4.3.4
 _ZNK11KDecoration10metaObjectEv@Base 4:4.3.4
 _ZNK11KDecoration10windowTypeEm@Base 4:4.3.4
 _ZNK11KDecoration11isCloseableEv@Base 4:4.3.4
 _ZNK11KDecoration11isResizableEv@Base 4:4.3.4
 _ZNK11KDecoration11isShadeableEv@Base 4:4.3.4
 _ZNK11KDecoration12iconGeometryEv@Base 4:4.3.4
 _ZNK11KDecoration12maximizeModeEv@Base 4:4.3.4
 _ZNK11KDecoration13initialWFlagsEv@Base 4:4.3.4
 _ZNK11KDecoration13isMaximizableEv@Base 4:4.3.4
 _ZNK11KDecoration13isMinimizableEv@Base 4:4.3.4
 _ZNK11KDecoration13mousePositionERK6QPoint@Base 4:4.3.4
 _ZNK11KDecoration15transparentRectEv@Base 4:4.4.0
 _ZNK11KDecoration16unobscuredRegionERK7QRegion@Base 4:4.3.4
 _ZNK11KDecoration19initialParentWidgetEv@Base 4:4.3.4
 _ZNK11KDecoration19providesContextHelpEv@Base 4:4.3.4
 _ZNK11KDecoration4iconEv@Base 4:4.3.4
 _ZNK11KDecoration7captionEv@Base 4:4.3.4
 _ZNK11KDecoration7desktopEv@Base 4:4.3.4
 _ZNK11KDecoration7isModalEv@Base 4:4.3.4
 _ZNK11KDecoration7isShadeEv@Base 4:4.3.4
 _ZNK11KDecoration8geometryEv@Base 4:4.3.4
 _ZNK11KDecoration8isActiveEv@Base 4:4.3.4
 _ZNK11KDecoration8windowIdEv@Base 4:4.3.4
 _ZNK11KDecoration9isMovableEv@Base 4:4.3.4
 _ZNK11KDecoration9isPreviewEv@Base 4:4.3.4
 _ZNK11KDecoration9keepAboveEv@Base 4:4.3.4
 _ZNK11KDecoration9keepBelowEv@Base 4:4.3.4
 (optional=templinst)_ZNK12KConfigGroup9readEntryI6QColorEET_PKcRKS2_@Base 4:4.3.4
 _ZNK17KCommonDecoration10decorationEv@Base 4:4.3.4
 _ZNK17KCommonDecoration10isSetShadeEv@Base 4:4.3.4
 _ZNK17KCommonDecoration10metaObjectEv@Base 4:4.3.4
 _ZNK17KCommonDecoration10moveWidgetEiiP7QWidget@Base 4:4.3.4
 _ZNK17KCommonDecoration10windowTypeEm@Base 4:4.3.4
 _ZNK17KCommonDecoration11isCloseableEv@Base 4:4.3.4
 _ZNK17KCommonDecoration11isResizableEv@Base 4:4.3.4
 _ZNK17KCommonDecoration11isShadeableEv@Base 4:4.3.4
 _ZNK17KCommonDecoration11minimumSizeEv@Base 4:4.3.4
 _ZNK17KCommonDecoration12iconGeometryEv@Base 4:4.3.4
 _ZNK17KCommonDecoration12isToolWindowEv@Base 4:4.3.4
 _ZNK17KCommonDecoration12layoutMetricENS_12LayoutMetricEbPK23KCommonDecorationButton@Base 4:4.3.4
 _ZNK17KCommonDecoration12maximizeModeEv@Base 4:4.3.4
 _ZNK17KCommonDecoration12resetButtonsEv@Base 4:4.3.4
 _ZNK17KCommonDecoration12resizeWidgetEiiP7QWidget@Base 4:4.3.4
 _ZNK17KCommonDecoration12updateLayoutEv@Base 4:4.3.4
 _ZNK17KCommonDecoration13initialWFlagsEv@Base 4:4.3.4
 _ZNK17KCommonDecoration13isMaximizableEv@Base 4:4.3.4
 _ZNK17KCommonDecoration13isMinimizableEv@Base 4:4.3.4
 _ZNK17KCommonDecoration13mousePositionERK6QPoint@Base 4:4.3.4
 _ZNK17KCommonDecoration13updateButtonsEv@Base 4:4.3.4
 _ZNK17KCommonDecoration15isOnAllDesktopsEv@Base 4:4.3.4
 _ZNK17KCommonDecoration15transparentRectEv@Base 4:4.4.0
 _ZNK17KCommonDecoration16buttonsLeftWidthEv@Base 4:4.3.4
 _ZNK17KCommonDecoration16unobscuredRegionERK7QRegion@Base 4:4.3.4
 _ZNK17KCommonDecoration17buttonsRightWidthEv@Base 4:4.3.4
 _ZNK17KCommonDecoration18defaultButtonsLeftEv@Base 4:4.3.4
 _ZNK17KCommonDecoration19decorationBehaviourENS_19DecorationBehaviourE@Base 4:4.3.4
 _ZNK17KCommonDecoration19defaultButtonsRightEv@Base 4:4.3.4
 _ZNK17KCommonDecoration19initialParentWidgetEv@Base 4:4.3.4
 _ZNK17KCommonDecoration19providesContextHelpEv@Base 4:4.3.4
 _ZNK17KCommonDecoration20buttonContainerWidthERK7QVectorIP23KCommonDecorationButtonEb@Base 4:4.3.4
 _ZNK17KCommonDecoration4iconEv@Base 4:4.3.4
 _ZNK17KCommonDecoration5widthEv@Base 4:4.3.4
 _ZNK17KCommonDecoration6heightEv@Base 4:4.3.4
 _ZNK17KCommonDecoration6widgetEv@Base 4:4.3.4
 _ZNK17KCommonDecoration7bordersERiS0_S0_S0_@Base 4:4.3.4
 _ZNK17KCommonDecoration7captionEv@Base 4:4.3.4
 _ZNK17KCommonDecoration7desktopEv@Base 4:4.3.4
 _ZNK17KCommonDecoration7factoryEv@Base 4:4.3.4
 _ZNK17KCommonDecoration7isModalEv@Base 4:4.3.4
 _ZNK17KCommonDecoration7isShadeEv@Base 4:4.3.4
 _ZNK17KCommonDecoration8geometryEv@Base 4:4.3.4
 _ZNK17KCommonDecoration8isActiveEv@Base 4:4.3.4
 _ZNK17KCommonDecoration8windowIdEv@Base 4:4.3.4
 _ZNK17KCommonDecoration9isMovableEv@Base 4:4.3.4
 _ZNK17KCommonDecoration9isPreviewEv@Base 4:4.3.4
 _ZNK17KCommonDecoration9keepAboveEv@Base 4:4.3.4
 _ZNK17KCommonDecoration9keepBelowEv@Base 4:4.3.4
 _ZNK17KCommonDecoration9titleRectEv@Base 4:4.3.4
 _ZNK18KDecorationFactory10windowTypeEmP17KDecorationBridge@Base 4:4.3.4
 _ZNK18KDecorationFactory11borderSizesEv@Base 4:4.3.4
 _ZNK18KDecorationFactory6existsEPK11KDecoration@Base 4:4.3.4
 _ZNK18KDecorationOptions12showTooltipsEv@Base 4:4.3.4
 _ZNK18KDecorationOptions16titleButtonsLeftEv@Base 4:4.3.4
 _ZNK18KDecorationOptions17titleButtonsRightEv@Base 4:4.3.4
 _ZNK18KDecorationOptions19preferredBorderSizeEP18KDecorationFactory@Base 4:4.3.4
 _ZNK18KDecorationOptions21customButtonPositionsEv@Base 4:4.3.4
 _ZNK18KDecorationOptions23operationMaxButtonClickE6QFlagsIN2Qt11MouseButtonEE@Base 4:4.3.4
 _ZNK18KDecorationOptions26moveResizeMaximizedWindowsEv@Base 4:4.3.4
 _ZNK18KDecorationOptions4fontEbb@Base 4:4.3.4
 _ZNK18KDecorationOptions5colorEN18KDecorationDefines9ColorTypeEb@Base 4:4.3.4
 _ZNK18KDecorationOptions7paletteEN18KDecorationDefines9ColorTypeEb@Base 4:4.3.4
 _ZNK19KDecorationUnstable10metaObjectEv@Base 4:4.3.4
 _ZNK19KDecorationUnstable16clientGroupItemsEv@Base 4:4.4.0
 _ZNK19KDecorationUnstable17compositingActiveEv@Base 4:4.3.4
 _ZNK19KDecorationUnstable7paddingERiS0_S0_S0_@Base 4:4.3.4
 _ZNK23KCommonDecorationButton10decorationEv@Base 4:4.3.4
 _ZNK23KCommonDecorationButton10metaObjectEv@Base 4:4.3.4
 _ZNK23KCommonDecorationButton4typeEv@Base 4:4.3.4
 _ZNK23KCommonDecorationButton6isLeftEv@Base 4:4.3.4
 _ZNK23KCommonDecorationButton8sizeHintEv@Base 4:4.3.4
 _ZNK25KCommonDecorationUnstable10metaObjectEv@Base 4:4.3.4
 _ZNK25KCommonDecorationUnstable16clientGroupItemsEv@Base 4:4.4.0
 _ZNK25KCommonDecorationUnstable17compositingActiveEv@Base 4:4.3.4
 _ZTI11KDecoration@Base 4:4.3.4
 _ZTI17KCommonDecoration@Base 4:4.3.4
 _ZTI18KDecorationDefines@Base 4:4.3.4
 _ZTI18KDecorationFactory@Base 4:4.3.4
 _ZTI18KDecorationOptions@Base 4:4.3.4
 _ZTI18KDecorationPlugins@Base 4:4.3.4
 _ZTI19KDecorationUnstable@Base 4:4.3.4
 _ZTI23KCommonDecorationButton@Base 4:4.3.4
 _ZTI25KCommonDecorationUnstable@Base 4:4.3.4
 _ZTI25KDecorationBridgeUnstable@Base 4:4.4.0
 _ZTS11KDecoration@Base 4:4.3.4
 _ZTS17KCommonDecoration@Base 4:4.3.4
 _ZTS18KDecorationDefines@Base 4:4.3.4
 _ZTS18KDecorationFactory@Base 4:4.3.4
 _ZTS18KDecorationOptions@Base 4:4.3.4
 _ZTS18KDecorationPlugins@Base 4:4.3.4
 _ZTS19KDecorationUnstable@Base 4:4.3.4
 _ZTS23KCommonDecorationButton@Base 4:4.3.4
 _ZTS25KCommonDecorationUnstable@Base 4:4.3.4
 _ZTS25KDecorationBridgeUnstable@Base 4:4.4.0
 _ZTV11KDecoration@Base 4:4.3.4
 _ZTV17KCommonDecoration@Base 4:4.3.4
 _ZTV18KDecorationFactory@Base 4:4.3.4
 _ZTV18KDecorationOptions@Base 4:4.3.4
 _ZTV18KDecorationPlugins@Base 4:4.3.4
 _ZTV19KDecorationUnstable@Base 4:4.3.4
 _ZTV23KCommonDecorationButton@Base 4:4.3.4
 _ZTV25KCommonDecorationUnstable@Base 4:4.3.4
 (c++)"non-virtual thunk to KCommonDecorationButton::~KCommonDecorationButton()@Base" 4:4.3.4
