# SymbolsHelper-Confirmed: 4:4.4.0 amd64 i386
libprocesscore.so.4 libprocesscore4a #MINVER#
 _ZN9KSysGuard7Process10setCommandE7QString@Base 4:4.3.4
 _ZN9KSysGuard7Process10setSysTimeEx@Base 4:4.3.4
 _ZN9KSysGuard7Process11setSysUsageEi@Base 4:4.3.4
 _ZN9KSysGuard7Process11setUserTimeEx@Base 4:4.3.4
 _ZN9KSysGuard7Process12setNiceLevelEi@Base 4:4.3.4
 _ZN9KSysGuard7Process12setTracerpidEx@Base 4:4.3.4
 _ZN9KSysGuard7Process12setUserUsageEi@Base 4:4.3.4
 _ZN9KSysGuard7Process12setschedulerENS0_9SchedulerE@Base 4:4.3.4
 _ZN9KSysGuard7Process14setIoniceLevelEi@Base 4:4.3.4
 _ZN9KSysGuard7Process16setTotalSysUsageEi@Base 4:4.3.4
 _ZN9KSysGuard7Process17setIoReadSyscallsEx@Base 4:4.4.0
 _ZN9KSysGuard7Process17setTotalUserUsageEi@Base 4:4.3.4
 _ZN9KSysGuard7Process18setIoPriorityClassENS0_15IoPriorityClassE@Base 4:4.3.4
 _ZN9KSysGuard7Process18setIoWriteSyscallsEx@Base 4:4.4.0
 _ZN9KSysGuard7Process19setIoCharactersReadEx@Base 4:4.4.0
 _ZN9KSysGuard7Process21setIoReadSyscallsRateEl@Base 4:4.4.0
 _ZN9KSysGuard7Process22setIoCharactersWrittenEx@Base 4:4.4.0
 _ZN9KSysGuard7Process22setIoWriteSyscallsRateEl@Base 4:4.4.0
 _ZN9KSysGuard7Process23setIoCharactersReadRateEl@Base 4:4.4.0
 _ZN9KSysGuard7Process26setIoCharactersWrittenRateEl@Base 4:4.4.0
 _ZN9KSysGuard7Process27setIoCharactersActuallyReadEx@Base 4:4.4.0
 _ZN9KSysGuard7Process30setIoCharactersActuallyWrittenEx@Base 4:4.4.0
 _ZN9KSysGuard7Process31setIoCharactersActuallyReadRateEl@Base 4:4.4.0
 _ZN9KSysGuard7Process34setIoCharactersActuallyWrittenRateEl@Base 4:4.4.0
 _ZN9KSysGuard7Process5clearEv@Base 4:4.3.4
 _ZN9KSysGuard7Process6setGidEx@Base 4:4.3.4
 _ZN9KSysGuard7Process6setTtyE10QByteArray@Base 4:4.3.4
 _ZN9KSysGuard7Process6setUidEx@Base 4:4.3.4
 _ZN9KSysGuard7Process7setEgidEx@Base 4:4.3.4
 _ZN9KSysGuard7Process7setEuidEx@Base 4:4.3.4
 _ZN9KSysGuard7Process7setNameE7QString@Base 4:4.3.4
 _ZN9KSysGuard7Process7setSgidEx@Base 4:4.3.4
 _ZN9KSysGuard7Process7setSuidEx@Base 4:4.3.4
 _ZN9KSysGuard7Process8setFsgidEx@Base 4:4.3.4
 _ZN9KSysGuard7Process8setFsuidEx@Base 4:4.3.4
 _ZN9KSysGuard7Process8setLoginE7QString@Base 4:4.3.4
 _ZN9KSysGuard7Process8setVmRSSEx@Base 4:4.3.4
 _ZN9KSysGuard7Process9setStatusENS0_13ProcessStatusE@Base 4:4.3.4
 _ZN9KSysGuard7Process9setVmSizeEx@Base 4:4.3.4
 _ZN9KSysGuard7Process9setVmURSSEx@Base 4:4.3.4
 _ZN9KSysGuard7ProcessC1Ev@Base 4:4.3.4
 _ZN9KSysGuard7ProcessC1ExxPS0_@Base 4:4.3.4
 _ZN9KSysGuard7ProcessC2Ev@Base 4:4.3.4
 _ZN9KSysGuard7ProcessC2ExxPS0_@Base 4:4.3.4
 _ZN9KSysGuard9Processes10addProcessEll@Base 4:4.3.4
 _ZN9KSysGuard9Processes10runCommandERK7QStringi@Base 4:4.3.4
 _ZN9KSysGuard9Processes10sendSignalEli@Base 4:4.3.4
 _ZN9KSysGuard9Processes11getInstanceERK7QString@Base 4:4.3.4
 _ZN9KSysGuard9Processes11killProcessEl@Base 4:4.3.4
 _ZN9KSysGuard9Processes11qt_metacallEN11QMetaObject4CallEiPPv@Base 4:4.3.4
 _ZN9KSysGuard9Processes11qt_metacastEPKc@Base 4:4.3.4
 _ZN9KSysGuard9Processes11setNicenessEli@Base 4:4.3.4
 _ZN9KSysGuard9Processes12setSchedulerElNS_7Process9SchedulerEi@Base 4:4.3.4
 _ZN9KSysGuard9Processes13endAddProcessEv@Base 4:4.3.4
 _ZN9KSysGuard9Processes13setIoNicenessElNS_7Process15IoPriorityClassEi@Base 4:4.3.4
 _ZN9KSysGuard9Processes13updateProcessEPNS_7ProcessEl@Base 4:4.4.0
 _ZN9KSysGuard9Processes14answerReceivedEiRK5QListI10QByteArrayE@Base 4:4.3.4
 _ZN9KSysGuard9Processes14endMoveProcessEv@Base 4:4.3.4
 _ZN9KSysGuard9Processes14processChangedEPNS_7ProcessEb@Base 4:4.3.4
 _ZN9KSysGuard9Processes14returnInstanceERK7QString@Base 4:4.3.4
 _ZN9KSysGuard9Processes15beginAddProcessEPNS_7ProcessE@Base 4:4.3.4
 _ZN9KSysGuard9Processes16beginMoveProcessEPNS_7ProcessES2_@Base 4:4.3.4
 _ZN9KSysGuard9Processes16endRemoveProcessEv@Base 4:4.3.4
 _ZN9KSysGuard9Processes16processesUpdatedEv@Base 4:4.3.4
 _ZN9KSysGuard9Processes16staticMetaObjectE@Base 4:4.3.4
 _ZN9KSysGuard9Processes17updateProcessInfoEPNS_7ProcessE@Base 4:4.3.4
 _ZN9KSysGuard9Processes18beginRemoveProcessEPNS_7ProcessE@Base 4:4.3.4
 _ZN9KSysGuard9Processes18supportsIoNicenessEv@Base 4:4.3.4
 _ZN9KSysGuard9Processes18updateAllProcessesEl6QFlagsINS0_10UpdateFlagEE@Base 4:4.4.0
 _ZN9KSysGuard9Processes18updateOrAddProcessEl@Base 4:4.3.4
 _ZN9KSysGuard9Processes19totalPhysicalMemoryEv@Base 4:4.3.4
 _ZN9KSysGuard9Processes20numberProcessorCoresEv@Base 4:4.3.4
 _ZN9KSysGuard9Processes2d2E@Base 4:4.3.4
 _ZN9KSysGuard9Processes7Private20markProcessesAsEndedEl@Base 4:4.4.0
 _ZN9KSysGuard9Processes7PrivateD1Ev@Base 4:4.3.4
 _ZN9KSysGuard9Processes7PrivateD2Ev@Base 4:4.3.4
 _ZN9KSysGuard9ProcessesC1EPNS_17AbstractProcessesE@Base 4:4.3.4
 _ZN9KSysGuard9ProcessesC2EPNS_17AbstractProcessesE@Base 4:4.3.4
 _ZN9KSysGuard9ProcessesD0Ev@Base 4:4.3.4
 _ZN9KSysGuard9ProcessesD1Ev@Base 4:4.3.4
 _ZN9KSysGuard9ProcessesD2Ev@Base 4:4.3.4
 _ZNK9KSysGuard7Process16translatedStatusEv@Base 4:4.3.4
 _ZNK9KSysGuard7Process17niceLevelAsStringEv@Base 4:4.3.4
 _ZNK9KSysGuard7Process17schedulerAsStringEv@Base 4:4.3.4
 _ZNK9KSysGuard7Process19ioniceLevelAsStringEv@Base 4:4.3.4
 _ZNK9KSysGuard7Process23ioPriorityClassAsStringEv@Base 4:4.3.4
 _ZNK9KSysGuard9Processes10getProcessEl@Base 4:4.3.4
 _ZNK9KSysGuard9Processes10metaObjectEv@Base 4:4.3.4
 _ZNK9KSysGuard9Processes12processCountEv@Base 4:4.4.0
 _ZNK9KSysGuard9Processes15getAllProcessesEv@Base 4:4.3.4
 _ZTIN9KSysGuard9ProcessesE@Base 4:4.3.4
 _ZTSN9KSysGuard9ProcessesE@Base 4:4.3.4
 _ZTVN9KSysGuard9ProcessesE@Base 4:4.3.4
