# SymbolsHelper-Confirmed: 4:4.4.1 amd64
libplasmaclock.so.4 libplasmaclock4a #MINVER#
* Build-Depends-Package: kdebase-workspace-dev
 _ZN11ClockApplet10popupEventEb@Base 4:4.3.4
 _ZN11ClockApplet10wheelEventEP24QGraphicsSceneWheelEvent@Base 4:4.3.4
 _ZN11ClockApplet11dateChangedERK5QDate@Base 4:4.3.4
 _ZN11ClockApplet11qt_metacallEN11QMetaObject4CallEiPPv@Base 4:4.3.4
 _ZN11ClockApplet11qt_metacastEPKc@Base 4:4.3.4
 _ZN11ClockApplet13configChangedEv@Base 4:4.4.1
 _ZN11ClockApplet13localTimezoneEv@Base 4:4.3.4
 _ZN11ClockApplet13toolTipHiddenEv@Base 4:4.3.4
 _ZN11ClockApplet14configAcceptedEv@Base 4:4.3.4
 _ZN11ClockApplet14toolTipContentEv@Base 4:4.3.4
 _ZN11ClockApplet15copyToClipboardEP7QAction@Base 4:4.3.4
 _ZN11ClockApplet16constraintsEventE6QFlagsIN6Plasma10ConstraintEE@Base 4:4.3.4
 _ZN11ClockApplet16initExtenderItemEPN6Plasma12ExtenderItemE@Base 4:4.3.4
 _ZN11ClockApplet16staticMetaObjectE@Base 4:4.3.4
 _ZN11ClockApplet16updateTipContentEv@Base 4:4.3.4
 _ZN11ClockApplet17contextualActionsEv@Base 4:4.3.4
 _ZN11ClockApplet18clockConfigChangedEv@Base 4:4.4.1
 _ZN11ClockApplet18setCurrentTimezoneERK7QString@Base 4:4.3.4
 _ZN11ClockApplet18toolTipAboutToShowEv@Base 4:4.3.4
 _ZN11ClockApplet19clockConfigAcceptedEv@Base 4:4.3.4
 _ZN11ClockApplet19updateClipboardMenuEv@Base 4:4.3.4
 _ZN11ClockApplet20changeEngineTimezoneERK7QStringS2_@Base 4:4.3.4
 _ZN11ClockApplet21updateClockDefaultsToEv@Base 4:4.3.4
 _ZN11ClockApplet22launchTimeControlPanelEv@Base 4:4.4.0
 _ZN11ClockApplet25localTimezoneUntranslatedEv@Base 4:4.3.4
 _ZN11ClockApplet28createConfigurationInterfaceEP13KConfigDialog@Base 4:4.3.4
 _ZN11ClockApplet33createClockConfigurationInterfaceEP13KConfigDialog@Base 4:4.3.4
 _ZN11ClockApplet4initEv@Base 4:4.3.4
 _ZN11ClockApplet9speakTimeERK5QTime@Base 4:4.3.4
 _ZN11ClockAppletC1EP7QObjectRK5QListI8QVariantE@Base 4:4.3.4
 _ZN11ClockAppletC2EP7QObjectRK5QListI8QVariantE@Base 4:4.3.4
 _ZN11ClockAppletD0Ev@Base 4:4.3.4
 _ZN11ClockAppletD1Ev@Base 4:4.3.4
 _ZN11ClockAppletD2Ev@Base 4:4.3.4
 _ZN6Plasma13CalendarTable10wheelEventEP24QGraphicsSceneWheelEvent@Base 4:4.3.4
 _ZN6Plasma13CalendarTable11dateChangedERK5QDate@Base 4:4.3.4
 _ZN6Plasma13CalendarTable11dateChangedERK5QDateS3_@Base 4:4.3.4
 _ZN6Plasma13CalendarTable11paintBorderEP8QPainteriii6QFlagsINS0_8CellTypeEERK5QDate@Base 4:4.3.4
 _ZN6Plasma13CalendarTable11qt_metacallEN11QMetaObject4CallEiPPv@Base 4:4.3.4
 _ZN6Plasma13CalendarTable11qt_metacastEPKc@Base 4:4.3.4
 _ZN6Plasma13CalendarTable11resizeEventEP25QGraphicsSceneResizeEvent@Base 4:4.3.4
 _ZN6Plasma13CalendarTable11setCalendarEPK15KCalendarSystem@Base 4:4.4.0
 _ZN6Plasma13CalendarTable11setCalendarERK7QString@Base 4:4.4.0
 _ZN6Plasma13CalendarTable12tableClickedEv@Base 4:4.3.4
 _ZN6Plasma13CalendarTable13setDataEngineEPNS_10DataEngineE@Base 4:4.3.4
 _ZN6Plasma13CalendarTable14configAcceptedE12KConfigGroup@Base 4:4.4.0
 _ZN6Plasma13CalendarTable14hoverMoveEventEP24QGraphicsSceneHoverEvent@Base 4:4.3.4
 _ZN6Plasma13CalendarTable14mouseMoveEventEP24QGraphicsSceneMouseEvent@Base 4:4.3.4
 _ZN6Plasma13CalendarTable15displayHolidaysEv@Base 4:4.4.0
 _ZN6Plasma13CalendarTable15mousePressEventEP24QGraphicsSceneMouseEvent@Base 4:4.3.4
 _ZN6Plasma13CalendarTable15setDatePropertyE5QDateRK7QString@Base 4:4.3.4
 _ZN6Plasma13CalendarTable16populateHolidaysEv@Base 4:4.3.4
 _ZN6Plasma13CalendarTable16staticMetaObjectE@Base 4:4.3.4
 _ZN6Plasma13CalendarTable17mouseReleaseEventEP24QGraphicsSceneMouseEvent@Base 4:4.3.4
 _ZN6Plasma13CalendarTable17setHolidaysRegionERK7QString@Base 4:4.4.0
 _ZN6Plasma13CalendarTable18applyConfigurationE12KConfigGroup@Base 4:4.4.0
 _ZN6Plasma13CalendarTable18setDisplayHolidaysEb@Base 4:4.4.0
 _ZN6Plasma13CalendarTable18writeConfigurationE12KConfigGroup@Base 4:4.4.0
 _ZN6Plasma13CalendarTable19clearDatePropertiesEv@Base 4:4.3.4
 _ZN6Plasma13CalendarTable27applyConfigurationInterfaceEv@Base 4:4.4.0
 _ZN6Plasma13CalendarTable28createConfigurationInterfaceEP13KConfigDialog@Base 4:4.4.0
 _ZN6Plasma13CalendarTable5cellXEi@Base 4:4.3.4
 _ZN6Plasma13CalendarTable5cellYEi@Base 4:4.3.4
 _ZN6Plasma13CalendarTable5paintEP8QPainterPK24QStyleOptionGraphicsItemP7QWidget@Base 4:4.3.4
 _ZN6Plasma13CalendarTable7setDateERK5QDate@Base 4:4.3.4
 _ZN6Plasma13CalendarTable9paintCellEP8QPainteriii6QFlagsINS0_8CellTypeEERK5QDate@Base 4:4.3.4
 _ZN6Plasma13CalendarTableC1EP15QGraphicsWidget@Base 4:4.3.4
 _ZN6Plasma13CalendarTableC1ERK5QDateP15QGraphicsWidget@Base 4:4.3.4
 _ZN6Plasma13CalendarTableC2EP15QGraphicsWidget@Base 4:4.3.4
 _ZN6Plasma13CalendarTableC2ERK5QDateP15QGraphicsWidget@Base 4:4.3.4
 _ZN6Plasma13CalendarTableD0Ev@Base 4:4.3.4
 _ZN6Plasma13CalendarTableD1Ev@Base 4:4.3.4
 _ZN6Plasma13CalendarTableD2Ev@Base 4:4.3.4
 _ZN6Plasma8Calendar11dateChangedERK5QDate@Base 4:4.3.4
 _ZN6Plasma8Calendar11dateChangedERK5QDateS3_@Base 4:4.3.4
 _ZN6Plasma8Calendar11dateUpdatedERK5QDate@Base 4:4.3.4
 _ZN6Plasma8Calendar11monthsPopupEv@Base 4:4.3.4
 _ZN6Plasma8Calendar11qt_metacallEN11QMetaObject4CallEiPPv@Base 4:4.3.4
 _ZN6Plasma8Calendar11qt_metacastEPKc@Base 4:4.3.4
 _ZN6Plasma8Calendar11setCalendarEPK15KCalendarSystem@Base 4:4.4.0
 _ZN6Plasma8Calendar11setCalendarERK7QString@Base 4:4.4.0
 _ZN6Plasma8Calendar13setDataEngineEPNS_10DataEngineE@Base 4:4.3.4
 _ZN6Plasma8Calendar14configAcceptedE12KConfigGroup@Base 4:4.4.0
 _ZN6Plasma8Calendar14monthTriggeredEv@Base 4:4.3.4
 _ZN6Plasma8Calendar14refreshWidgetsEv@Base 4:4.3.4
 _ZN6Plasma8Calendar15displayHolidaysEv@Base 4:4.4.0
 _ZN6Plasma8Calendar15hideYearSpinBoxEv@Base 4:4.3.4
 _ZN6Plasma8Calendar15setDatePropertyE5QDateRK7QString@Base 4:4.4.0
 _ZN6Plasma8Calendar15showYearSpinBoxEv@Base 4:4.3.4
 _ZN6Plasma8Calendar16manualDateChangeEv@Base 4:4.3.4
 _ZN6Plasma8Calendar16staticMetaObjectE@Base 4:4.3.4
 _ZN6Plasma8Calendar17setHolidaysRegionERK7QString@Base 4:4.4.0
 _ZN6Plasma8Calendar18applyConfigurationE12KConfigGroup@Base 4:4.4.0
 _ZN6Plasma8Calendar18setDisplayHolidaysEb@Base 4:4.4.0
 _ZN6Plasma8Calendar18writeConfigurationE12KConfigGroup@Base 4:4.4.0
 _ZN6Plasma8Calendar19clearDatePropertiesEv@Base 4:4.4.0
 _ZN6Plasma8Calendar27applyConfigurationInterfaceEv@Base 4:4.4.0
 _ZN6Plasma8Calendar28createConfigurationInterfaceEP13KConfigDialog@Base 4:4.4.0
 _ZN6Plasma8Calendar4initEPNS_13CalendarTableE@Base 4:4.3.4
 _ZN6Plasma8Calendar7setDateERK5QDate@Base 4:4.3.4
 _ZN6Plasma8Calendar8goToWeekEi@Base 4:4.3.4
 _ZN6Plasma8Calendar9goToTodayEv@Base 4:4.3.4
 _ZN6Plasma8Calendar9nextMonthEv@Base 4:4.3.4
 _ZN6Plasma8Calendar9prevMonthEv@Base 4:4.3.4
 _ZN6Plasma8CalendarC1EP15QGraphicsWidget@Base 4:4.3.4
 _ZN6Plasma8CalendarC1EPNS_13CalendarTableEP15QGraphicsWidget@Base 4:4.3.4
 _ZN6Plasma8CalendarC1ERK5QDateP15QGraphicsWidget@Base 4:4.3.4
 _ZN6Plasma8CalendarC2EP15QGraphicsWidget@Base 4:4.3.4
 _ZN6Plasma8CalendarC2EPNS_13CalendarTableEP15QGraphicsWidget@Base 4:4.3.4
 _ZN6Plasma8CalendarC2ERK5QDateP15QGraphicsWidget@Base 4:4.3.4
 _ZN6Plasma8CalendarD0Ev@Base 4:4.3.4
 _ZN6Plasma8CalendarD1Ev@Base 4:4.3.4
 _ZN6Plasma8CalendarD2Ev@Base 4:4.3.4
 _ZNK11ClockApplet10metaObjectEv@Base 4:4.3.4
 _ZNK11ClockApplet14prettyTimezoneEv@Base 4:4.3.4
 _ZNK11ClockApplet15currentTimezoneEv@Base 4:4.3.4
 _ZNK11ClockApplet15isLocalTimezoneEv@Base 4:4.3.4
 _ZNK11ClockApplet20getSelectedTimezonesEv@Base 4:4.3.4
 _ZNK11ClockApplet21shouldDisplayTimezoneEv@Base 4:4.3.4
 _ZNK11ClockApplet8calendarEv@Base 4:4.4.0
 _ZNK6Plasma13CalendarTable10dataEngineEv@Base 4:4.4.0
 _ZNK6Plasma13CalendarTable10metaObjectEv@Base 4:4.3.4
 _ZNK6Plasma13CalendarTable12datePropertyE5QDate@Base 4:4.3.4
 _ZNK6Plasma13CalendarTable14holidaysRegionEv@Base 4:4.4.0
 _ZNK6Plasma13CalendarTable4dateEv@Base 4:4.3.4
 _ZNK6Plasma13CalendarTable8calendarEv@Base 4:4.3.4
 _ZNK6Plasma8Calendar10dataEngineEv@Base 4:4.4.0
 _ZNK6Plasma8Calendar10metaObjectEv@Base 4:4.3.4
 _ZNK6Plasma8Calendar12datePropertyE5QDate@Base 4:4.4.0
 _ZNK6Plasma8Calendar13calendarTableEv@Base 4:4.3.4
 _ZNK6Plasma8Calendar14holidaysRegionEv@Base 4:4.4.0
 _ZNK6Plasma8Calendar4dateEv@Base 4:4.3.4
 _ZNK6Plasma8Calendar8calendarEv@Base 4:4.3.4
 _ZTI11ClockApplet@Base 4:4.3.4
 _ZTIN6Plasma13CalendarTableE@Base 4:4.3.4
 _ZTIN6Plasma8CalendarE@Base 4:4.3.4
 _ZTS11ClockApplet@Base 4:4.3.4
 _ZTSN6Plasma13CalendarTableE@Base 4:4.3.4
 _ZTSN6Plasma8CalendarE@Base 4:4.3.4
 _ZTV11ClockApplet@Base 4:4.3.4
 _ZTVN6Plasma13CalendarTableE@Base 4:4.3.4
 _ZTVN6Plasma8CalendarE@Base 4:4.3.4
 (c++)"non-virtual thunk to ClockApplet::wheelEvent(QGraphicsSceneWheelEvent*)@Base" 4:4.3.4
 (c++)"non-virtual thunk to ClockApplet::~ClockApplet()@Base" 4:4.3.4
 (c++)"non-virtual thunk to Plasma::Calendar::~Calendar()@Base" 4:4.3.4
 (c++)"non-virtual thunk to Plasma::CalendarTable::hoverMoveEvent(QGraphicsSceneHoverEvent*)@Base" 4:4.3.4
 (c++)"non-virtual thunk to Plasma::CalendarTable::mouseMoveEvent(QGraphicsSceneMouseEvent*)@Base" 4:4.3.4
 (c++)"non-virtual thunk to Plasma::CalendarTable::mousePressEvent(QGraphicsSceneMouseEvent*)@Base" 4:4.3.4
 (c++)"non-virtual thunk to Plasma::CalendarTable::mouseReleaseEvent(QGraphicsSceneMouseEvent*)@Base" 4:4.3.4
 (c++)"non-virtual thunk to Plasma::CalendarTable::paint(QPainter*, QStyleOptionGraphicsItem const*, QWidget*)@Base" 4:4.3.4
 (c++)"non-virtual thunk to Plasma::CalendarTable::wheelEvent(QGraphicsSceneWheelEvent*)@Base" 4:4.3.4
 (c++)"non-virtual thunk to Plasma::CalendarTable::~CalendarTable()@Base" 4:4.3.4
