# SymbolsHelper-Confirmed: 4:4.5.90 amd64
libsolidcontrol.so.4 libsolidcontrol4b #MINVER#
* Build-Depends-Package: kdebase-workspace-dev
 _ZN5Solid7Control10IPv4ConfigC1ERK5QListINS0_11IPv4AddressEERKS2_IjERK11QStringListRKS2_INS0_9IPv4RouteEE@Base 4:4.3.4
 _ZN5Solid7Control10IPv4ConfigC1ERKS1_@Base 4:4.3.4
 _ZN5Solid7Control10IPv4ConfigC1Ev@Base 4:4.3.4
 _ZN5Solid7Control10IPv4ConfigC2ERK5QListINS0_11IPv4AddressEERKS2_IjERK11QStringListRKS2_INS0_9IPv4RouteEE@Base 4:4.3.4
 _ZN5Solid7Control10IPv4ConfigC2ERKS1_@Base 4:4.3.4
 _ZN5Solid7Control10IPv4ConfigC2Ev@Base 4:4.3.4
 _ZN5Solid7Control10IPv4ConfigD1Ev@Base 4:4.3.4
 _ZN5Solid7Control10IPv4ConfigD2Ev@Base 4:4.3.4
 _ZN5Solid7Control10IPv4ConfigaSERKS1_@Base 4:4.3.4
 _ZN5Solid7Control10Networking17releaseConnectionEv@Base 4:4.3.4
 _ZN5Solid7Control10Networking17requestConnectionEP7QObjectPKc@Base 4:4.3.4
 _ZN5Solid7Control11AccessPoint11qt_metacallEN11QMetaObject4CallEiPPv@Base 4:4.3.4
 _ZN5Solid7Control11AccessPoint11qt_metacastEPKc@Base 4:4.3.4
 _ZN5Solid7Control11AccessPoint12_k_destroyedEP7QObject@Base 4:4.3.4
 _ZN5Solid7Control11AccessPoint14bitRateChangedEi@Base 4:4.3.4
 _ZN5Solid7Control11AccessPoint16staticMetaObjectE@Base 4:4.3.4
 _ZN5Solid7Control11AccessPoint21signalStrengthChangedEi@Base 4:4.3.4
 _ZN5Solid7Control11AccessPointC1EP7QObject@Base 4:4.3.4
 _ZN5Solid7Control11AccessPointC1ERKS1_@Base 4:4.3.4
 _ZN5Solid7Control11AccessPointC1ERNS0_18AccessPointPrivateEP7QObject@Base 4:4.3.4
 _ZN5Solid7Control11AccessPointC1ERNS0_18AccessPointPrivateERKS1_@Base 4:4.3.4
 _ZN5Solid7Control11AccessPointC2EP7QObject@Base 4:4.3.4
 _ZN5Solid7Control11AccessPointC2ERKS1_@Base 4:4.3.4
 _ZN5Solid7Control11AccessPointC2ERNS0_18AccessPointPrivateEP7QObject@Base 4:4.3.4
 _ZN5Solid7Control11AccessPointC2ERNS0_18AccessPointPrivateERKS1_@Base 4:4.3.4
 _ZN5Solid7Control11AccessPointD0Ev@Base 4:4.3.4
 _ZN5Solid7Control11AccessPointD1Ev@Base 4:4.3.4
 _ZN5Solid7Control11AccessPointD2Ev@Base 4:4.3.4
 _ZN5Solid7Control11IPv4AddressC1ERKS1_@Base 4:4.3.4
 _ZN5Solid7Control11IPv4AddressC1Ejjj@Base 4:4.3.4
 _ZN5Solid7Control11IPv4AddressC1Ev@Base 4:4.3.4
 _ZN5Solid7Control11IPv4AddressC2ERKS1_@Base 4:4.3.4
 _ZN5Solid7Control11IPv4AddressC2Ejjj@Base 4:4.3.4
 _ZN5Solid7Control11IPv4AddressC2Ev@Base 4:4.3.4
 _ZN5Solid7Control11IPv4AddressD1Ev@Base 4:4.3.4
 _ZN5Solid7Control11IPv4AddressD2Ev@Base 4:4.3.4
 _ZN5Solid7Control11IPv4AddressaSERKS1_@Base 4:4.3.4
 _ZN5Solid7Control12ModemManager15modemInterfacesEv@Base 4:4.5.90
 _ZN5Solid7Control12ModemManager18findModemInterfaceERK7QStringNS0_14ModemInterface16GsmInterfaceTypeE@Base 4:4.5.90
 _ZN5Solid7Control12ModemManager8Notifier11qt_metacallEN11QMetaObject4CallEiPPv@Base 4:4.5.90
 _ZN5Solid7Control12ModemManager8Notifier11qt_metacastEPKc@Base 4:4.5.90
 _ZN5Solid7Control12ModemManager8Notifier13statusChangedENS_10Networking6StatusE@Base 4:4.5.90
 _ZN5Solid7Control12ModemManager8Notifier16staticMetaObjectE@Base 4:4.5.90
 _ZN5Solid7Control12ModemManager8Notifier19modemInterfaceAddedERK7QString@Base 4:4.5.90
 _ZN5Solid7Control12ModemManager8Notifier21modemInterfaceRemovedERK7QString@Base 4:4.5.90
 _ZN5Solid7Control12ModemManager8notifierEv@Base 4:4.5.90
 _ZN5Solid7Control13RemoteControl10allRemotesEv@Base 4:4.4.0
 _ZN5Solid7Control13RemoteControl11qt_metacallEN11QMetaObject4CallEiPPv@Base 4:4.4.0
 _ZN5Solid7Control13RemoteControl11qt_metacastEPKc@Base 4:4.4.0
 _ZN5Solid7Control13RemoteControl13buttonPressedERKNS0_19RemoteControlButtonE@Base 4:4.4.0
 _ZN5Solid7Control13RemoteControl14allRemoteNamesEv@Base 4:4.4.0
 _ZN5Solid7Control13RemoteControl16staticMetaObjectE@Base 4:4.4.0
 _ZN5Solid7Control13RemoteControlC1EP7QObject@Base 4:4.4.0
 _ZN5Solid7Control13RemoteControlC1ERK7QString@Base 4:4.4.0
 _ZN5Solid7Control13RemoteControlC1ERKS1_@Base 4:4.4.0
 _ZN5Solid7Control13RemoteControlC1ERNS0_20RemoteControlPrivateEP7QObject@Base 4:4.4.0
 _ZN5Solid7Control13RemoteControlC1ERNS0_20RemoteControlPrivateERKS1_@Base 4:4.4.0
 _ZN5Solid7Control13RemoteControlC2EP7QObject@Base 4:4.4.0
 _ZN5Solid7Control13RemoteControlC2ERK7QString@Base 4:4.4.0
 _ZN5Solid7Control13RemoteControlC2ERKS1_@Base 4:4.4.0
 _ZN5Solid7Control13RemoteControlC2ERNS0_20RemoteControlPrivateEP7QObject@Base 4:4.4.0
 _ZN5Solid7Control13RemoteControlC2ERNS0_20RemoteControlPrivateERKS1_@Base 4:4.4.0
 _ZN5Solid7Control13RemoteControlD0Ev@Base 4:4.4.0
 _ZN5Solid7Control13RemoteControlD1Ev@Base 4:4.4.0
 _ZN5Solid7Control13RemoteControlD2Ev@Base 4:4.4.0
 _ZN5Solid7Control14ModemInterface11qt_metacallEN11QMetaObject4CallEiPPv@Base 4:4.5.90
 _ZN5Solid7Control14ModemInterface11qt_metacastEPKc@Base 4:4.5.90
 _ZN5Solid7Control14ModemInterface11typeChangedENS1_4TypeE@Base 4:4.5.90
 _ZN5Solid7Control14ModemInterface13deviceChangedERK7QString@Base 4:4.5.90
 _ZN5Solid7Control14ModemInterface13driverChangedERK7QString@Base 4:4.5.90
 _ZN5Solid7Control14ModemInterface14enabledChangedEb@Base 4:4.5.90
 _ZN5Solid7Control14ModemInterface15ipMethodChangedENS1_6MethodE@Base 4:4.5.90
 _ZN5Solid7Control14ModemInterface16staticMetaObjectE@Base 4:4.5.90
 _ZN5Solid7Control14ModemInterface17slotDeviceChangedERK7QString@Base 4:4.5.90
 _ZN5Solid7Control14ModemInterface17slotDriverChangedERK7QString@Base 4:4.5.90
 _ZN5Solid7Control14ModemInterface19convertBandToStringENS1_4BandE@Base 4:4.5.90
 _ZN5Solid7Control14ModemInterface19convertTypeToStringENS1_4TypeE@Base 4:4.5.90
 _ZN5Solid7Control14ModemInterface19masterDeviceChangedERK7QString@Base 4:4.5.90
 _ZN5Solid7Control14ModemInterface21unlockRequiredChangedERK7QString@Base 4:4.5.90
 _ZN5Solid7Control14ModemInterface23slotMasterDeviceChangedERK7QString@Base 4:4.5.90
 _ZN5Solid7Control14ModemInterface25slotUnlockRequiredChangedERK7QString@Base 4:4.5.90
 _ZN5Solid7Control14ModemInterface26convertAllowedModeToStringENS1_11AllowedModeE@Base 4:4.5.90
 _ZN5Solid7Control14ModemInterface31convertAccessTechnologyToStringENS1_16AccessTechnologyE@Base 4:4.5.90
 _ZN5Solid7Control14ModemInterfaceC1EP7QObject@Base 4:4.5.90
 _ZN5Solid7Control14ModemInterfaceC1ERKS1_@Base 4:4.5.90
 _ZN5Solid7Control14ModemInterfaceC1ERNS0_21ModemInterfacePrivateEP7QObject@Base 4:4.5.90
 _ZN5Solid7Control14ModemInterfaceC1ERNS0_21ModemInterfacePrivateERKS1_@Base 4:4.5.90
 _ZN5Solid7Control14ModemInterfaceC2EP7QObject@Base 4:4.5.90
 _ZN5Solid7Control14ModemInterfaceC2ERKS1_@Base 4:4.5.90
 _ZN5Solid7Control14ModemInterfaceC2ERNS0_21ModemInterfacePrivateEP7QObject@Base 4:4.5.90
 _ZN5Solid7Control14ModemInterfaceC2ERNS0_21ModemInterfacePrivateERKS1_@Base 4:4.5.90
 _ZN5Solid7Control14ModemInterfaceD0Ev@Base 4:4.5.90
 _ZN5Solid7Control14ModemInterfaceD1Ev@Base 4:4.5.90
 _ZN5Solid7Control14ModemInterfaceD2Ev@Base 4:4.5.90
 _ZN5Solid7Control14NetworkManager17activeConnectionsEv@Base 4:4.3.4
 _ZN5Solid7Control14NetworkManager17isWirelessEnabledEv@Base 4:4.3.4
 _ZN5Solid7Control14NetworkManager17networkInterfacesEv@Base 4:4.3.4
 _ZN5Solid7Control14NetworkManager18activateConnectionERK7QStringS4_RK4QMapIS2_8QVariantE@Base 4:4.3.4
 _ZN5Solid7Control14NetworkManager18setWirelessEnabledEb@Base 4:4.3.4
 _ZN5Solid7Control14NetworkManager19isNetworkingEnabledEv@Base 4:4.3.4
 _ZN5Solid7Control14NetworkManager20deactivateConnectionERK7QString@Base 4:4.3.4
 _ZN5Solid7Control14NetworkManager20findNetworkInterfaceERK7QString@Base 4:4.3.4
 _ZN5Solid7Control14NetworkManager20setNetworkingEnabledEb@Base 4:4.3.4
 _ZN5Solid7Control14NetworkManager23supportedInterfaceTypesEv@Base 4:4.3.4
 _ZN5Solid7Control14NetworkManager25isWirelessHardwareEnabledEv@Base 4:4.3.4
 _ZN5Solid7Control14NetworkManager6statusEv@Base 4:4.3.4
 _ZN5Solid7Control14NetworkManager8Notifier11qt_metacallEN11QMetaObject4CallEiPPv@Base 4:4.3.4
 _ZN5Solid7Control14NetworkManager8Notifier11qt_metacastEPKc@Base 4:4.3.4
 _ZN5Solid7Control14NetworkManager8Notifier13statusChangedENS_10Networking6StatusE@Base 4:4.3.4
 _ZN5Solid7Control14NetworkManager8Notifier16staticMetaObjectE@Base 4:4.3.4
 _ZN5Solid7Control14NetworkManager8Notifier21networkInterfaceAddedERK7QString@Base 4:4.3.4
 _ZN5Solid7Control14NetworkManager8Notifier22wirelessEnabledChangedEb@Base 4:4.3.4
 _ZN5Solid7Control14NetworkManager8Notifier23networkInterfaceRemovedERK7QString@Base 4:4.3.4
 _ZN5Solid7Control14NetworkManager8Notifier24activeConnectionsChangedEv@Base 4:4.3.4
 _ZN5Solid7Control14NetworkManager8Notifier24networkingEnabledChangedEb@Base 4:4.5.90
 _ZN5Solid7Control14NetworkManager8Notifier30wirelessHardwareEnabledChangedEb@Base 4:4.3.4
 _ZN5Solid7Control14NetworkManager8notifierEv@Base 4:4.3.4
 _ZN5Solid7Control16NetworkInterface11qt_metacallEN11QMetaObject4CallEiPPv@Base 4:4.3.4
 _ZN5Solid7Control16NetworkInterface11qt_metacastEPKc@Base 4:4.3.4
 _ZN5Solid7Control16NetworkInterface13linkUpChangedEb@Base 4:4.3.4
 _ZN5Solid7Control16NetworkInterface16ipDetailsChangedEv@Base 4:4.3.4
 _ZN5Solid7Control16NetworkInterface16staticMetaObjectE@Base 4:4.3.4
 _ZN5Solid7Control16NetworkInterface22connectionStateChangedEi@Base 4:4.3.4
 _ZN5Solid7Control16NetworkInterface22connectionStateChangedEiii@Base 4:4.3.4
 _ZN5Solid7Control16NetworkInterfaceC1EP7QObject@Base 4:4.3.4
 _ZN5Solid7Control16NetworkInterfaceC1ERKS1_@Base 4:4.3.4
 _ZN5Solid7Control16NetworkInterfaceC1ERNS0_23NetworkInterfacePrivateEP7QObject@Base 4:4.3.4
 _ZN5Solid7Control16NetworkInterfaceC1ERNS0_23NetworkInterfacePrivateERKS1_@Base 4:4.3.4
 _ZN5Solid7Control16NetworkInterfaceC2EP7QObject@Base 4:4.3.4
 _ZN5Solid7Control16NetworkInterfaceC2ERKS1_@Base 4:4.3.4
 _ZN5Solid7Control16NetworkInterfaceC2ERNS0_23NetworkInterfacePrivateEP7QObject@Base 4:4.3.4
 _ZN5Solid7Control16NetworkInterfaceC2ERNS0_23NetworkInterfacePrivateERKS1_@Base 4:4.3.4
 _ZN5Solid7Control16NetworkInterfaceD0Ev@Base 4:4.3.4
 _ZN5Solid7Control16NetworkInterfaceD1Ev@Base 4:4.3.4
 _ZN5Solid7Control16NetworkInterfaceD2Ev@Base 4:4.3.4
 _ZN5Solid7Control18ManagerBasePrivate24_k_forcePreloadedBackendEPKcP7QObject@Base 4:4.3.4
 _ZN5Solid7Control18ModemCdmaInterface11qt_metacallEN11QMetaObject4CallEiPPv@Base 4:4.5.90
 _ZN5Solid7Control18ModemCdmaInterface11qt_metacastEPKc@Base 4:4.5.90
 _ZN5Solid7Control18ModemCdmaInterface12_k_destroyedEP7QObject@Base 4:4.5.90
 _ZN5Solid7Control18ModemCdmaInterface15makeConnectionsEP7QObject@Base 4:4.5.90
 _ZN5Solid7Control18ModemCdmaInterface16staticMetaObjectE@Base 4:4.5.90
 _ZN5Solid7Control18ModemCdmaInterface20signalQualityChangedEj@Base 4:4.5.90
 _ZN5Solid7Control18ModemCdmaInterface24registrationStateChangedENS1_17RegistrationStateES2_@Base 4:4.5.90
 _ZN5Solid7Control18ModemCdmaInterfaceC1EP7QObject@Base 4:4.5.90
 _ZN5Solid7Control18ModemCdmaInterfaceC1ERKS1_@Base 4:4.5.90
 _ZN5Solid7Control18ModemCdmaInterfaceC2EP7QObject@Base 4:4.5.90
 _ZN5Solid7Control18ModemCdmaInterfaceC2ERKS1_@Base 4:4.5.90
 _ZN5Solid7Control18ModemCdmaInterfaceD0Ev@Base 4:4.5.90
 _ZN5Solid7Control18ModemCdmaInterfaceD1Ev@Base 4:4.5.90
 _ZN5Solid7Control18ModemCdmaInterfaceD2Ev@Base 4:4.5.90
 _ZN5Solid7Control19GsmNetworkInterface11qt_metacallEN11QMetaObject4CallEiPPv@Base 4:4.3.4
 _ZN5Solid7Control19GsmNetworkInterface11qt_metacastEPKc@Base 4:4.3.4
 _ZN5Solid7Control19GsmNetworkInterface12_k_destroyedEP7QObject@Base 4:4.3.4
 _ZN5Solid7Control19GsmNetworkInterface15makeConnectionsEP7QObject@Base 4:4.3.4
 _ZN5Solid7Control19GsmNetworkInterface16staticMetaObjectE@Base 4:4.3.4
 _ZN5Solid7Control19GsmNetworkInterface17getModemCardIfaceEv@Base 4:4.5.90
 _ZN5Solid7Control19GsmNetworkInterface20getModemNetworkIfaceEv@Base 4:4.5.90
 _ZN5Solid7Control19GsmNetworkInterface20setModemNetworkIfaceEPNS0_24ModemGsmNetworkInterfaceE@Base 4:4.5.90
 _ZN5Solid7Control19GsmNetworkInterfaceC1EP7QObject@Base 4:4.3.4
 _ZN5Solid7Control19GsmNetworkInterfaceC1ERKS1_@Base 4:4.3.4
 _ZN5Solid7Control19GsmNetworkInterfaceC1ERNS0_26GsmNetworkInterfacePrivateEP7QObject@Base 4:4.3.4
 _ZN5Solid7Control19GsmNetworkInterfaceC1ERNS0_26GsmNetworkInterfacePrivateERKS1_@Base 4:4.3.4
 _ZN5Solid7Control19GsmNetworkInterfaceC2EP7QObject@Base 4:4.3.4
 _ZN5Solid7Control19GsmNetworkInterfaceC2ERKS1_@Base 4:4.3.4
 _ZN5Solid7Control19GsmNetworkInterfaceC2ERNS0_26GsmNetworkInterfacePrivateEP7QObject@Base 4:4.3.4
 _ZN5Solid7Control19GsmNetworkInterfaceC2ERNS0_26GsmNetworkInterfacePrivateERKS1_@Base 4:4.3.4
 _ZN5Solid7Control19GsmNetworkInterfaceD0Ev@Base 4:4.3.4
 _ZN5Solid7Control19GsmNetworkInterfaceD1Ev@Base 4:4.3.4
 _ZN5Solid7Control19GsmNetworkInterfaceD2Ev@Base 4:4.3.4
 _ZN5Solid7Control19RemoteControlButtonC1ERK7QStringNS1_8ButtonIdEi@Base 4:4.4.0
 _ZN5Solid7Control19RemoteControlButtonC1ERK7QStringS4_i@Base 4:4.4.0
 _ZN5Solid7Control19RemoteControlButtonC1ERKS1_@Base 4:4.4.0
 _ZN5Solid7Control19RemoteControlButtonC2ERK7QStringNS1_8ButtonIdEi@Base 4:4.4.0
 _ZN5Solid7Control19RemoteControlButtonC2ERK7QStringS4_i@Base 4:4.4.0
 _ZN5Solid7Control19RemoteControlButtonC2ERKS1_@Base 4:4.4.0
 _ZN5Solid7Control19RemoteControlButtonD1Ev@Base 4:4.4.0
 _ZN5Solid7Control19RemoteControlButtonD2Ev@Base 4:4.4.0
 _ZN5Solid7Control20CdmaNetworkInterface11qt_metacallEN11QMetaObject4CallEiPPv@Base 4:4.3.4
 _ZN5Solid7Control20CdmaNetworkInterface11qt_metacastEPKc@Base 4:4.3.4
 _ZN5Solid7Control20CdmaNetworkInterface12_k_destroyedEP7QObject@Base 4:4.3.4
 _ZN5Solid7Control20CdmaNetworkInterface15makeConnectionsEP7QObject@Base 4:4.3.4
 _ZN5Solid7Control20CdmaNetworkInterface16staticMetaObjectE@Base 4:4.3.4
 _ZN5Solid7Control20CdmaNetworkInterfaceC1EP7QObject@Base 4:4.3.4
 _ZN5Solid7Control20CdmaNetworkInterfaceC1ERKS1_@Base 4:4.3.4
 _ZN5Solid7Control20CdmaNetworkInterfaceC1ERNS0_27CdmaNetworkInterfacePrivateEP7QObject@Base 4:4.3.4
 _ZN5Solid7Control20CdmaNetworkInterfaceC1ERNS0_27CdmaNetworkInterfacePrivateERKS1_@Base 4:4.3.4
 _ZN5Solid7Control20CdmaNetworkInterfaceC2EP7QObject@Base 4:4.3.4
 _ZN5Solid7Control20CdmaNetworkInterfaceC2ERKS1_@Base 4:4.3.4
 _ZN5Solid7Control20CdmaNetworkInterfaceC2ERNS0_27CdmaNetworkInterfacePrivateEP7QObject@Base 4:4.3.4
 _ZN5Solid7Control20CdmaNetworkInterfaceC2ERNS0_27CdmaNetworkInterfacePrivateERKS1_@Base 4:4.3.4
 _ZN5Solid7Control20CdmaNetworkInterfaceD0Ev@Base 4:4.3.4
 _ZN5Solid7Control20CdmaNetworkInterfaceD1Ev@Base 4:4.3.4
 _ZN5Solid7Control20CdmaNetworkInterfaceD2Ev@Base 4:4.3.4
 _ZN5Solid7Control20ModemGsmHsoInterface11qt_metacallEN11QMetaObject4CallEiPPv@Base 4:4.5.90
 _ZN5Solid7Control20ModemGsmHsoInterface11qt_metacastEPKc@Base 4:4.5.90
 _ZN5Solid7Control20ModemGsmHsoInterface12_k_destroyedEP7QObject@Base 4:4.5.90
 _ZN5Solid7Control20ModemGsmHsoInterface15makeConnectionsEP7QObject@Base 4:4.5.90
 _ZN5Solid7Control20ModemGsmHsoInterface16staticMetaObjectE@Base 4:4.5.90
 _ZN5Solid7Control20ModemGsmHsoInterfaceC1EP7QObject@Base 4:4.5.90
 _ZN5Solid7Control20ModemGsmHsoInterfaceC1ERKS1_@Base 4:4.5.90
 _ZN5Solid7Control20ModemGsmHsoInterfaceC2EP7QObject@Base 4:4.5.90
 _ZN5Solid7Control20ModemGsmHsoInterfaceC2ERKS1_@Base 4:4.5.90
 _ZN5Solid7Control20ModemGsmHsoInterfaceD0Ev@Base 4:4.5.90
 _ZN5Solid7Control20ModemGsmHsoInterfaceD1Ev@Base 4:4.5.90
 _ZN5Solid7Control20ModemGsmHsoInterfaceD2Ev@Base 4:4.5.90
 _ZN5Solid7Control20ModemGsmSmsInterface11qt_metacallEN11QMetaObject4CallEiPPv@Base 4:4.5.90
 _ZN5Solid7Control20ModemGsmSmsInterface11qt_metacastEPKc@Base 4:4.5.90
 _ZN5Solid7Control20ModemGsmSmsInterface11smsReceivedEib@Base 4:4.5.90
 _ZN5Solid7Control20ModemGsmSmsInterface12_k_destroyedEP7QObject@Base 4:4.5.90
 _ZN5Solid7Control20ModemGsmSmsInterface15makeConnectionsEP7QObject@Base 4:4.5.90
 _ZN5Solid7Control20ModemGsmSmsInterface16staticMetaObjectE@Base 4:4.5.90
 _ZN5Solid7Control20ModemGsmSmsInterface9completedEib@Base 4:4.5.90
 _ZN5Solid7Control20ModemGsmSmsInterfaceC1EP7QObject@Base 4:4.5.90
 _ZN5Solid7Control20ModemGsmSmsInterfaceC1ERKS1_@Base 4:4.5.90
 _ZN5Solid7Control20ModemGsmSmsInterfaceC2EP7QObject@Base 4:4.5.90
 _ZN5Solid7Control20ModemGsmSmsInterfaceC2ERKS1_@Base 4:4.5.90
 _ZN5Solid7Control20ModemGsmSmsInterfaceD0Ev@Base 4:4.5.90
 _ZN5Solid7Control20ModemGsmSmsInterfaceD1Ev@Base 4:4.5.90
 _ZN5Solid7Control20ModemGsmSmsInterfaceD2Ev@Base 4:4.5.90
 _ZN5Solid7Control20RemoteControlManager8Notifier11qt_metacallEN11QMetaObject4CallEiPPv@Base 4:4.4.0
 _ZN5Solid7Control20RemoteControlManager8Notifier11qt_metacastEPKc@Base 4:4.4.0
 _ZN5Solid7Control20RemoteControlManager8Notifier13statusChangedEb@Base 4:4.4.0
 _ZN5Solid7Control20RemoteControlManager8Notifier16staticMetaObjectE@Base 4:4.4.0
 _ZN5Solid7Control20RemoteControlManager8Notifier18remoteControlAddedERK7QString@Base 4:4.4.0
 _ZN5Solid7Control20RemoteControlManager8Notifier20remoteControlRemovedERK7QString@Base 4:4.4.0
 _ZN5Solid7Control20RemoteControlManager8notifierEv@Base 4:4.4.0
 _ZN5Solid7Control20RemoteControlManager9connectedEv@Base 4:4.4.0
 _ZN5Solid7Control21ModemGsmCardInterface11qt_metacallEN11QMetaObject4CallEiPPv@Base 4:4.5.90
 _ZN5Solid7Control21ModemGsmCardInterface11qt_metacastEPKc@Base 4:4.5.90
 _ZN5Solid7Control21ModemGsmCardInterface12_k_destroyedEP7QObject@Base 4:4.5.90
 _ZN5Solid7Control21ModemGsmCardInterface15makeConnectionsEP7QObject@Base 4:4.5.90
 _ZN5Solid7Control21ModemGsmCardInterface16staticMetaObjectE@Base 4:4.5.90
 _ZN5Solid7Control21ModemGsmCardInterface21supportedBandsChangedENS0_14ModemInterface4BandE@Base 4:4.5.90
 _ZN5Solid7Control21ModemGsmCardInterface21supportedModesChangedENS0_14ModemInterface4ModeE@Base 4:4.5.90
 _ZN5Solid7Control21ModemGsmCardInterfaceC1EP7QObject@Base 4:4.5.90
 _ZN5Solid7Control21ModemGsmCardInterfaceC1ERKS1_@Base 4:4.5.90
 _ZN5Solid7Control21ModemGsmCardInterfaceC2EP7QObject@Base 4:4.5.90
 _ZN5Solid7Control21ModemGsmCardInterfaceC2ERKS1_@Base 4:4.5.90
 _ZN5Solid7Control21ModemGsmCardInterfaceD0Ev@Base 4:4.5.90
 _ZN5Solid7Control21ModemGsmCardInterfaceD1Ev@Base 4:4.5.90
 _ZN5Solid7Control21ModemGsmCardInterfaceD2Ev@Base 4:4.5.90
 _ZN5Solid7Control21ModemGsmUssdInterface11qt_metacallEN11QMetaObject4CallEiPPv@Base 4:4.5.90
 _ZN5Solid7Control21ModemGsmUssdInterface11qt_metacastEPKc@Base 4:4.5.90
 _ZN5Solid7Control21ModemGsmUssdInterface12_k_destroyedEP7QObject@Base 4:4.5.90
 _ZN5Solid7Control21ModemGsmUssdInterface12stateChangedERK7QString@Base 4:4.5.90
 _ZN5Solid7Control21ModemGsmUssdInterface15makeConnectionsEP7QObject@Base 4:4.5.90
 _ZN5Solid7Control21ModemGsmUssdInterface16slotStateChangedERK7QString@Base 4:4.5.90
 _ZN5Solid7Control21ModemGsmUssdInterface16staticMetaObjectE@Base 4:4.5.90
 _ZN5Solid7Control21ModemGsmUssdInterface21networkRequestChangedERK7QString@Base 4:4.5.90
 _ZN5Solid7Control21ModemGsmUssdInterface25slotNetworkRequestChangedERK7QString@Base 4:4.5.90
 _ZN5Solid7Control21ModemGsmUssdInterface26networkNotificationChangedERK7QString@Base 4:4.5.90
 _ZN5Solid7Control21ModemGsmUssdInterface30slotNetworkNotificationChangedERK7QString@Base 4:4.5.90
 _ZN5Solid7Control21ModemGsmUssdInterfaceC1EP7QObject@Base 4:4.5.90
 _ZN5Solid7Control21ModemGsmUssdInterfaceC1ERKS1_@Base 4:4.5.90
 _ZN5Solid7Control21ModemGsmUssdInterfaceC2EP7QObject@Base 4:4.5.90
 _ZN5Solid7Control21ModemGsmUssdInterfaceC2ERKS1_@Base 4:4.5.90
 _ZN5Solid7Control21ModemGsmUssdInterfaceD0Ev@Base 4:4.5.90
 _ZN5Solid7Control21ModemGsmUssdInterfaceD1Ev@Base 4:4.5.90
 _ZN5Solid7Control21ModemGsmUssdInterfaceD2Ev@Base 4:4.5.90
 _ZN5Solid7Control21ModemManagerInterface11deviceAddedER7QString@Base 4:4.5.90
 _ZN5Solid7Control21ModemManagerInterface11qt_metacallEN11QMetaObject4CallEiPPv@Base 4:4.5.90
 _ZN5Solid7Control21ModemManagerInterface11qt_metacastEPKc@Base 4:4.5.90
 _ZN5Solid7Control21ModemManagerInterface13deviceRemovedER7QString@Base 4:4.5.90
 _ZN5Solid7Control21ModemManagerInterface16staticMetaObjectE@Base 4:4.5.90
 _ZN5Solid7Control21ModemManagerInterfaceC1EP7QObject@Base 4:4.5.90
 _ZN5Solid7Control21ModemManagerInterfaceC1ERKS1_@Base 4:4.5.90
 _ZN5Solid7Control21ModemManagerInterfaceC1ERNS0_28ModemManagerInterfacePrivateEP7QObject@Base 4:4.5.90
 _ZN5Solid7Control21ModemManagerInterfaceC1ERNS0_28ModemManagerInterfacePrivateERKS1_@Base 4:4.5.90
 _ZN5Solid7Control21ModemManagerInterfaceC2EP7QObject@Base 4:4.5.90
 _ZN5Solid7Control21ModemManagerInterfaceC2ERKS1_@Base 4:4.5.90
 _ZN5Solid7Control21ModemManagerInterfaceC2ERNS0_28ModemManagerInterfacePrivateEP7QObject@Base 4:4.5.90
 _ZN5Solid7Control21ModemManagerInterfaceC2ERNS0_28ModemManagerInterfacePrivateERKS1_@Base 4:4.5.90
 _ZN5Solid7Control21ModemManagerInterfaceD0Ev@Base 4:4.5.90
 _ZN5Solid7Control21ModemManagerInterfaceD1Ev@Base 4:4.5.90
 _ZN5Solid7Control21ModemManagerInterfaceD2Ev@Base 4:4.5.90
 _ZN5Solid7Control21WiredNetworkInterface11qt_metacallEN11QMetaObject4CallEiPPv@Base 4:4.3.4
 _ZN5Solid7Control21WiredNetworkInterface11qt_metacastEPKc@Base 4:4.3.4
 _ZN5Solid7Control21WiredNetworkInterface12_k_destroyedEP7QObject@Base 4:4.3.4
 _ZN5Solid7Control21WiredNetworkInterface14bitRateChangedEi@Base 4:4.3.4
 _ZN5Solid7Control21WiredNetworkInterface14carrierChangedEb@Base 4:4.3.4
 _ZN5Solid7Control21WiredNetworkInterface16staticMetaObjectE@Base 4:4.3.4
 _ZN5Solid7Control21WiredNetworkInterfaceC1EP7QObject@Base 4:4.3.4
 _ZN5Solid7Control21WiredNetworkInterfaceC1ERKS1_@Base 4:4.3.4
 _ZN5Solid7Control21WiredNetworkInterfaceC1ERNS0_28WiredNetworkInterfacePrivateEP7QObject@Base 4:4.3.4
 _ZN5Solid7Control21WiredNetworkInterfaceC1ERNS0_28WiredNetworkInterfacePrivateERKS1_@Base 4:4.3.4
 _ZN5Solid7Control21WiredNetworkInterfaceC2EP7QObject@Base 4:4.3.4
 _ZN5Solid7Control21WiredNetworkInterfaceC2ERKS1_@Base 4:4.3.4
 _ZN5Solid7Control21WiredNetworkInterfaceC2ERNS0_28WiredNetworkInterfacePrivateEP7QObject@Base 4:4.3.4
 _ZN5Solid7Control21WiredNetworkInterfaceC2ERNS0_28WiredNetworkInterfacePrivateERKS1_@Base 4:4.3.4
 _ZN5Solid7Control21WiredNetworkInterfaceD0Ev@Base 4:4.3.4
 _ZN5Solid7Control21WiredNetworkInterfaceD1Ev@Base 4:4.3.4
 _ZN5Solid7Control21WiredNetworkInterfaceD2Ev@Base 4:4.3.4
 _ZN5Solid7Control22ModemLocationInterface11qt_metacallEN11QMetaObject4CallEiPPv@Base 4:4.5.90
 _ZN5Solid7Control22ModemLocationInterface11qt_metacastEPKc@Base 4:4.5.90
 _ZN5Solid7Control22ModemLocationInterface12_k_destroyedEP7QObject@Base 4:4.5.90
 _ZN5Solid7Control22ModemLocationInterface14enabledChangedEb@Base 4:4.5.90
 _ZN5Solid7Control22ModemLocationInterface15locationChangedERK5QListI4QMapINS1_10CapabilityE8QVariantEE@Base 4:4.5.90
 _ZN5Solid7Control22ModemLocationInterface15makeConnectionsEP7QObject@Base 4:4.5.90
 _ZN5Solid7Control22ModemLocationInterface16staticMetaObjectE@Base 4:4.5.90
 _ZN5Solid7Control22ModemLocationInterface19capabilitiesChangedENS1_10CapabilityE@Base 4:4.5.90
 _ZN5Solid7Control22ModemLocationInterface19slotLocationChangedERK5QListI4QMapINS1_10CapabilityE8QVariantEE@Base 4:4.5.90
 _ZN5Solid7Control22ModemLocationInterface22signalsLocationChangedEb@Base 4:4.5.90
 _ZN5Solid7Control22ModemLocationInterfaceC1EP7QObject@Base 4:4.5.90
 _ZN5Solid7Control22ModemLocationInterfaceC1ERKS1_@Base 4:4.5.90
 _ZN5Solid7Control22ModemLocationInterfaceC2EP7QObject@Base 4:4.5.90
 _ZN5Solid7Control22ModemLocationInterfaceC2ERKS1_@Base 4:4.5.90
 _ZN5Solid7Control22ModemLocationInterfaceD0Ev@Base 4:4.5.90
 _ZN5Solid7Control22ModemLocationInterfaceD1Ev@Base 4:4.5.90
 _ZN5Solid7Control22ModemLocationInterfaceD2Ev@Base 4:4.5.90
 _ZN5Solid7Control22SerialNetworkInterface11qt_metacallEN11QMetaObject4CallEiPPv@Base 4:4.3.4
 _ZN5Solid7Control22SerialNetworkInterface11qt_metacastEPKc@Base 4:4.3.4
 _ZN5Solid7Control22SerialNetworkInterface12_k_destroyedEP7QObject@Base 4:4.3.4
 _ZN5Solid7Control22SerialNetworkInterface15makeConnectionsEP7QObject@Base 4:4.3.4
 _ZN5Solid7Control22SerialNetworkInterface16staticMetaObjectE@Base 4:4.3.4
 _ZN5Solid7Control22SerialNetworkInterface8pppStatsEjj@Base 4:4.3.4
 _ZN5Solid7Control22SerialNetworkInterfaceC1EP7QObject@Base 4:4.3.4
 _ZN5Solid7Control22SerialNetworkInterfaceC1ERKS1_@Base 4:4.3.4
 _ZN5Solid7Control22SerialNetworkInterfaceC1ERNS0_29SerialNetworkInterfacePrivateEP7QObject@Base 4:4.3.4
 _ZN5Solid7Control22SerialNetworkInterfaceC1ERNS0_29SerialNetworkInterfacePrivateERKS1_@Base 4:4.3.4
 _ZN5Solid7Control22SerialNetworkInterfaceC2EP7QObject@Base 4:4.3.4
 _ZN5Solid7Control22SerialNetworkInterfaceC2ERKS1_@Base 4:4.3.4
 _ZN5Solid7Control22SerialNetworkInterfaceC2ERNS0_29SerialNetworkInterfacePrivateEP7QObject@Base 4:4.3.4
 _ZN5Solid7Control22SerialNetworkInterfaceC2ERNS0_29SerialNetworkInterfacePrivateERKS1_@Base 4:4.3.4
 _ZN5Solid7Control22SerialNetworkInterfaceD0Ev@Base 4:4.3.4
 _ZN5Solid7Control22SerialNetworkInterfaceD1Ev@Base 4:4.3.4
 _ZN5Solid7Control22SerialNetworkInterfaceD2Ev@Base 4:4.3.4
 _ZN5Solid7Control24ModemGsmNetworkInterface11qt_metacallEN11QMetaObject4CallEiPPv@Base 4:4.5.90
 _ZN5Solid7Control24ModemGsmNetworkInterface11qt_metacastEPKc@Base 4:4.5.90
 _ZN5Solid7Control24ModemGsmNetworkInterface12_k_destroyedEP7QObject@Base 4:4.5.90
 _ZN5Solid7Control24ModemGsmNetworkInterface15makeConnectionsEP7QObject@Base 4:4.5.90
 _ZN5Solid7Control24ModemGsmNetworkInterface16staticMetaObjectE@Base 4:4.5.90
 _ZN5Solid7Control24ModemGsmNetworkInterface18allowedModeChangedENS0_14ModemInterface11AllowedModeE@Base 4:4.5.90
 _ZN5Solid7Control24ModemGsmNetworkInterface20signalQualityChangedEj@Base 4:4.5.90
 _ZN5Solid7Control24ModemGsmNetworkInterface23accessTechnologyChangedENS0_14ModemInterface16AccessTechnologyE@Base 4:4.5.90
 _ZN5Solid7Control24ModemGsmNetworkInterfaceC1EP7QObject@Base 4:4.5.90
 _ZN5Solid7Control24ModemGsmNetworkInterfaceC1ERKS1_@Base 4:4.5.90
 _ZN5Solid7Control24ModemGsmNetworkInterfaceC2EP7QObject@Base 4:4.5.90
 _ZN5Solid7Control24ModemGsmNetworkInterfaceC2ERKS1_@Base 4:4.5.90
 _ZN5Solid7Control24ModemGsmNetworkInterfaceD0Ev@Base 4:4.5.90
 _ZN5Solid7Control24ModemGsmNetworkInterfaceD1Ev@Base 4:4.5.90
 _ZN5Solid7Control24ModemGsmNetworkInterfaceD2Ev@Base 4:4.5.90
 _ZN5Solid7Control24WirelessNetworkInterface11modeChangedENS1_13OperationModeE@Base 4:4.3.4
 _ZN5Solid7Control24WirelessNetworkInterface11qt_metacallEN11QMetaObject4CallEiPPv@Base 4:4.3.4
 _ZN5Solid7Control24WirelessNetworkInterface11qt_metacastEPKc@Base 4:4.3.4
 _ZN5Solid7Control24WirelessNetworkInterface12_k_destroyedEP7QObject@Base 4:4.3.4
 _ZN5Solid7Control24WirelessNetworkInterface14bitRateChangedEi@Base 4:4.3.4
 _ZN5Solid7Control24WirelessNetworkInterface15makeConnectionsEP7QObject@Base 4:4.3.4
 _ZN5Solid7Control24WirelessNetworkInterface16staticMetaObjectE@Base 4:4.3.4
 _ZN5Solid7Control24WirelessNetworkInterface19_k_accessPointAddedERK7QString@Base 4:4.3.4
 _ZN5Solid7Control24WirelessNetworkInterface19accessPointAppearedERK7QString@Base 4:4.3.4
 _ZN5Solid7Control24WirelessNetworkInterface21_k_accessPointRemovedERK7QString@Base 4:4.3.4
 _ZN5Solid7Control24WirelessNetworkInterface22accessPointDisappearedERK7QString@Base 4:4.3.4
 _ZN5Solid7Control24WirelessNetworkInterface24activeAccessPointChangedERK7QString@Base 4:4.3.4
 _ZN5Solid7Control24WirelessNetworkInterfaceC1EP7QObject@Base 4:4.3.4
 _ZN5Solid7Control24WirelessNetworkInterfaceC1ERKS1_@Base 4:4.3.4
 _ZN5Solid7Control24WirelessNetworkInterfaceC1ERNS0_31WirelessNetworkInterfacePrivateEP7QObject@Base 4:4.3.4
 _ZN5Solid7Control24WirelessNetworkInterfaceC1ERNS0_31WirelessNetworkInterfacePrivateERKS1_@Base 4:4.3.4
 _ZN5Solid7Control24WirelessNetworkInterfaceC2EP7QObject@Base 4:4.3.4
 _ZN5Solid7Control24WirelessNetworkInterfaceC2ERKS1_@Base 4:4.3.4
 _ZN5Solid7Control24WirelessNetworkInterfaceC2ERNS0_31WirelessNetworkInterfacePrivateEP7QObject@Base 4:4.3.4
 _ZN5Solid7Control24WirelessNetworkInterfaceC2ERNS0_31WirelessNetworkInterfacePrivateERKS1_@Base 4:4.3.4
 _ZN5Solid7Control24WirelessNetworkInterfaceD0Ev@Base 4:4.3.4
 _ZN5Solid7Control24WirelessNetworkInterfaceD1Ev@Base 4:4.3.4
 _ZN5Solid7Control24WirelessNetworkInterfaceD2Ev@Base 4:4.3.4
 _ZN5Solid7Control25ModemGsmContactsInterface11qt_metacallEN11QMetaObject4CallEiPPv@Base 4:4.5.90
 _ZN5Solid7Control25ModemGsmContactsInterface11qt_metacastEPKc@Base 4:4.5.90
 _ZN5Solid7Control25ModemGsmContactsInterface12_k_destroyedEP7QObject@Base 4:4.5.90
 _ZN5Solid7Control25ModemGsmContactsInterface15makeConnectionsEP7QObject@Base 4:4.5.90
 _ZN5Solid7Control25ModemGsmContactsInterface16staticMetaObjectE@Base 4:4.5.90
 _ZN5Solid7Control25ModemGsmContactsInterfaceC1EP7QObject@Base 4:4.5.90
 _ZN5Solid7Control25ModemGsmContactsInterfaceC1ERKS1_@Base 4:4.5.90
 _ZN5Solid7Control25ModemGsmContactsInterfaceC2EP7QObject@Base 4:4.5.90
 _ZN5Solid7Control25ModemGsmContactsInterfaceC2ERKS1_@Base 4:4.5.90
 _ZN5Solid7Control25ModemGsmContactsInterfaceD0Ev@Base 4:4.5.90
 _ZN5Solid7Control25ModemGsmContactsInterfaceD1Ev@Base 4:4.5.90
 _ZN5Solid7Control25ModemGsmContactsInterfaceD2Ev@Base 4:4.5.90
 _ZN5Solid7Control9IPv4RouteC1ERKS1_@Base 4:4.3.4
 _ZN5Solid7Control9IPv4RouteC1Ejjjj@Base 4:4.3.4
 _ZN5Solid7Control9IPv4RouteC1Ev@Base 4:4.3.4
 _ZN5Solid7Control9IPv4RouteC2ERKS1_@Base 4:4.3.4
 _ZN5Solid7Control9IPv4RouteC2Ejjjj@Base 4:4.3.4
 _ZN5Solid7Control9IPv4RouteC2Ev@Base 4:4.3.4
 _ZN5Solid7Control9IPv4RouteD1Ev@Base 4:4.3.4
 _ZN5Solid7Control9IPv4RouteD2Ev@Base 4:4.3.4
 _ZN5Solid7Control9IPv4RouteaSERKS1_@Base 4:4.3.4
 _ZNK5Solid7Control10IPv4Config11nameserversEv@Base 4:4.3.4
 _ZNK5Solid7Control10IPv4Config6routesEv@Base 4:4.3.4
 _ZNK5Solid7Control10IPv4Config7domainsEv@Base 4:4.3.4
 _ZNK5Solid7Control10IPv4Config7isValidEv@Base 4:4.3.4
 _ZNK5Solid7Control10IPv4Config9addressesEv@Base 4:4.3.4
 _ZNK5Solid7Control11AccessPoint10maxBitRateEv@Base 4:4.3.4
 _ZNK5Solid7Control11AccessPoint10metaObjectEv@Base 4:4.3.4
 _ZNK5Solid7Control11AccessPoint11ssidChangedERK7QString@Base 4:4.3.4
 _ZNK5Solid7Control11AccessPoint12capabilitiesEv@Base 4:4.3.4
 _ZNK5Solid7Control11AccessPoint14signalStrengthEv@Base 4:4.3.4
 _ZNK5Solid7Control11AccessPoint15hardwareAddressEv@Base 4:4.3.4
 _ZNK5Solid7Control11AccessPoint15rsnFlagsChangedE6QFlagsINS1_7WpaFlagEE@Base 4:4.3.4
 _ZNK5Solid7Control11AccessPoint15wpaFlagsChangedE6QFlagsINS1_7WpaFlagEE@Base 4:4.3.4
 _ZNK5Solid7Control11AccessPoint16frequencyChangedEj@Base 4:4.3.4
 _ZNK5Solid7Control11AccessPoint3uniEv@Base 4:4.3.4
 _ZNK5Solid7Control11AccessPoint4modeEv@Base 4:4.3.4
 _ZNK5Solid7Control11AccessPoint4ssidEv@Base 4:4.3.4
 _ZNK5Solid7Control11AccessPoint7rawSsidEv@Base 4:4.3.4
 _ZNK5Solid7Control11AccessPoint8rsnFlagsEv@Base 4:4.3.4
 _ZNK5Solid7Control11AccessPoint8wpaFlagsEv@Base 4:4.3.4
 _ZNK5Solid7Control11AccessPoint9frequencyEv@Base 4:4.3.4
 _ZNK5Solid7Control11IPv4Address7addressEv@Base 4:4.3.4
 _ZNK5Solid7Control11IPv4Address7gatewayEv@Base 4:4.3.4
 _ZNK5Solid7Control11IPv4Address7isValidEv@Base 4:4.3.4
 _ZNK5Solid7Control11IPv4Address7netMaskEv@Base 4:4.3.4
 _ZNK5Solid7Control12ModemManager8Notifier10metaObjectEv@Base 4:4.5.90
 _ZNK5Solid7Control13RemoteControl10metaObjectEv@Base 4:4.4.0
 _ZNK5Solid7Control13RemoteControl4nameEv@Base 4:4.4.0
 _ZNK5Solid7Control13RemoteControl7buttonsEv@Base 4:4.4.0
 _ZNK5Solid7Control14ModemInterface10metaObjectEv@Base 4:4.5.90
 _ZNK5Solid7Control14ModemInterface12connectModemERK4QMapI7QString8QVariantE@Base 4:4.5.90
 _ZNK5Solid7Control14ModemInterface12connectModemERK7QString@Base 4:4.5.90
 _ZNK5Solid7Control14ModemInterface12getIp4ConfigEv@Base 4:4.5.90
 _ZNK5Solid7Control14ModemInterface12masterDeviceEv@Base 4:4.5.90
 _ZNK5Solid7Control14ModemInterface14unlockRequiredEv@Base 4:4.5.90
 _ZNK5Solid7Control14ModemInterface15disconnectModemEv@Base 4:4.5.90
 _ZNK5Solid7Control14ModemInterface3udiEv@Base 4:4.5.90
 _ZNK5Solid7Control14ModemInterface4typeEv@Base 4:4.5.90
 _ZNK5Solid7Control14ModemInterface6deviceEv@Base 4:4.5.90
 _ZNK5Solid7Control14ModemInterface6driverEv@Base 4:4.5.90
 _ZNK5Solid7Control14ModemInterface6enableEb@Base 4:4.5.90
 _ZNK5Solid7Control14ModemInterface7enabledEv@Base 4:4.5.90
 _ZNK5Solid7Control14ModemInterface7getInfoEv@Base 4:4.5.90
 _ZNK5Solid7Control14ModemInterface8ipMethodEv@Base 4:4.5.90
 _ZNK5Solid7Control14ModemInterface9getStatusEv@Base 4:4.5.90
 _ZNK5Solid7Control14NetworkManager8Notifier10metaObjectEv@Base 4:4.3.4
 _ZNK5Solid7Control16NetworkInterface10ipV4ConfigEv@Base 4:4.3.4
 _ZNK5Solid7Control16NetworkInterface10metaObjectEv@Base 4:4.3.4
 _ZNK5Solid7Control16NetworkInterface11designSpeedEv@Base 4:4.3.4
 _ZNK5Solid7Control16NetworkInterface12capabilitiesEv@Base 4:4.3.4
 _ZNK5Solid7Control16NetworkInterface13interfaceNameEv@Base 4:4.3.4
 _ZNK5Solid7Control16NetworkInterface15connectionStateEv@Base 4:4.3.4
 _ZNK5Solid7Control16NetworkInterface3udiEv@Base 4:4.5.90
 _ZNK5Solid7Control16NetworkInterface3uniEv@Base 4:4.3.4
 _ZNK5Solid7Control16NetworkInterface4typeEv@Base 4:4.3.4
 _ZNK5Solid7Control16NetworkInterface6driverEv@Base 4:4.3.4
 _ZNK5Solid7Control16NetworkInterface8isActiveEv@Base 4:4.3.4
 _ZNK5Solid7Control18ModemCdmaInterface10metaObjectEv@Base 4:4.5.90
 _ZNK5Solid7Control18ModemCdmaInterface16getServingSystemEv@Base 4:4.5.90
 _ZNK5Solid7Control18ModemCdmaInterface16getSignalQualityEv@Base 4:4.5.90
 _ZNK5Solid7Control18ModemCdmaInterface20getRegistrationStateEv@Base 4:4.5.90
 _ZNK5Solid7Control18ModemCdmaInterface4typeEv@Base 4:4.5.90
 _ZNK5Solid7Control18ModemCdmaInterface6getEsnEv@Base 4:4.5.90
 _ZNK5Solid7Control19GsmNetworkInterface10metaObjectEv@Base 4:4.3.4
 _ZNK5Solid7Control19GsmNetworkInterface4typeEv@Base 4:4.3.4
 _ZNK5Solid7Control19RemoteControlButton10remoteNameEv@Base 4:4.4.0
 _ZNK5Solid7Control19RemoteControlButton11descriptionEv@Base 4:4.4.0
 _ZNK5Solid7Control19RemoteControlButton13repeatCounterEv@Base 4:4.4.0
 _ZNK5Solid7Control19RemoteControlButton2idEv@Base 4:4.4.0
 _ZNK5Solid7Control19RemoteControlButton4nameEv@Base 4:4.4.0
 _ZNK5Solid7Control20CdmaNetworkInterface10metaObjectEv@Base 4:4.3.4
 _ZNK5Solid7Control20CdmaNetworkInterface4typeEv@Base 4:4.3.4
 _ZNK5Solid7Control20ModemGsmHsoInterface10metaObjectEv@Base 4:4.5.90
 _ZNK5Solid7Control20ModemGsmHsoInterface12authenticateERK7QStringS4_@Base 4:4.5.90
 _ZNK5Solid7Control20ModemGsmSmsInterface10metaObjectEv@Base 4:4.5.90
 _ZNK5Solid7Control20ModemGsmSmsInterface13setIndicationEiiiii@Base 4:4.5.90
 _ZNK5Solid7Control20ModemGsmSmsInterface15sendFromStorageEi@Base 4:4.5.90
 _ZNK5Solid7Control20ModemGsmSmsInterface3getEi@Base 4:4.5.90
 _ZNK5Solid7Control20ModemGsmSmsInterface4listEv@Base 4:4.5.90
 _ZNK5Solid7Control20ModemGsmSmsInterface4saveERK4QMapI7QString8QVariantE@Base 4:4.5.90
 _ZNK5Solid7Control20ModemGsmSmsInterface4sendERK4QMapI7QString8QVariantE@Base 4:4.5.90
 _ZNK5Solid7Control20ModemGsmSmsInterface7getSmscEv@Base 4:4.5.90
 _ZNK5Solid7Control20ModemGsmSmsInterface9deleteSmsEi@Base 4:4.5.90
 _ZNK5Solid7Control20ModemGsmSmsInterface9getFormatEv@Base 4:4.5.90
 _ZNK5Solid7Control20ModemGsmSmsInterface9setFormatEi@Base 4:4.5.90
 _ZNK5Solid7Control20RemoteControlManager8Notifier10metaObjectEv@Base 4:4.4.0
 _ZNK5Solid7Control21ModemGsmCardInterface10metaObjectEv@Base 4:4.5.90
 _ZNK5Solid7Control21ModemGsmCardInterface17getSupportedBandsEv@Base 4:4.5.90
 _ZNK5Solid7Control21ModemGsmCardInterface17getSupportedModesEv@Base 4:4.5.90
 _ZNK5Solid7Control21ModemGsmCardInterface7getImeiEv@Base 4:4.5.90
 _ZNK5Solid7Control21ModemGsmCardInterface7getImsiEv@Base 4:4.5.90
 _ZNK5Solid7Control21ModemGsmCardInterface7sendPinERK7QString@Base 4:4.5.90
 _ZNK5Solid7Control21ModemGsmCardInterface7sendPukERK7QStringS4_@Base 4:4.5.90
 _ZNK5Solid7Control21ModemGsmCardInterface9changePinERK7QStringS4_@Base 4:4.5.90
 _ZNK5Solid7Control21ModemGsmCardInterface9enablePinERK7QStringb@Base 4:4.5.90
 _ZNK5Solid7Control21ModemGsmUssdInterface10metaObjectEv@Base 4:4.5.90
 _ZNK5Solid7Control21ModemGsmUssdInterface17getNetworkRequestEv@Base 4:4.5.90
 _ZNK5Solid7Control21ModemGsmUssdInterface22getNetworkNotificationEv@Base 4:4.5.90
 _ZNK5Solid7Control21ModemGsmUssdInterface6cancelEv@Base 4:4.5.90
 _ZNK5Solid7Control21ModemGsmUssdInterface7respondE7QString@Base 4:4.5.90
 _ZNK5Solid7Control21ModemGsmUssdInterface8getStateEv@Base 4:4.5.90
 _ZNK5Solid7Control21ModemGsmUssdInterface8initiateERK7QString@Base 4:4.5.90
 _ZNK5Solid7Control21ModemManagerInterface10metaObjectEv@Base 4:4.5.90
 _ZNK5Solid7Control21WiredNetworkInterface10metaObjectEv@Base 4:4.3.4
 _ZNK5Solid7Control21WiredNetworkInterface15hardwareAddressEv@Base 4:4.3.4
 _ZNK5Solid7Control21WiredNetworkInterface4typeEv@Base 4:4.3.4
 _ZNK5Solid7Control21WiredNetworkInterface7bitRateEv@Base 4:4.3.4
 _ZNK5Solid7Control21WiredNetworkInterface7carrierEv@Base 4:4.3.4
 _ZNK5Solid7Control22ModemLocationInterface10metaObjectEv@Base 4:4.5.90
 _ZNK5Solid7Control22SerialNetworkInterface10metaObjectEv@Base 4:4.3.4
 _ZNK5Solid7Control22SerialNetworkInterface4typeEv@Base 4:4.3.4
 _ZNK5Solid7Control24ModemGsmNetworkInterface10metaObjectEv@Base 4:4.5.90
 _ZNK5Solid7Control24ModemGsmNetworkInterface14getAllowedModeEv@Base 4:4.5.90
 _ZNK5Solid7Control24ModemGsmNetworkInterface14setAllowedModeENS0_14ModemInterface11AllowedModeE@Base 4:4.5.90
 _ZNK5Solid7Control24ModemGsmNetworkInterface16getSignalQualityEv@Base 4:4.5.90
 _ZNK5Solid7Control24ModemGsmNetworkInterface17registerToNetworkERK7QString@Base 4:4.5.90
 _ZNK5Solid7Control24ModemGsmNetworkInterface19getAccessTechnologyEv@Base 4:4.5.90
 _ZNK5Solid7Control24ModemGsmNetworkInterface19getRegistrationInfoEv@Base 4:4.5.90
 _ZNK5Solid7Control24ModemGsmNetworkInterface23registrationInfoChangedERKNS1_20RegistrationInfoTypeE@Base 4:4.5.90
 _ZNK5Solid7Control24ModemGsmNetworkInterface4scanEv@Base 4:4.5.90
 _ZNK5Solid7Control24ModemGsmNetworkInterface4typeEv@Base 4:4.5.90
 _ZNK5Solid7Control24ModemGsmNetworkInterface6setApnERK7QString@Base 4:4.5.90
 _ZNK5Solid7Control24ModemGsmNetworkInterface7getBandEv@Base 4:4.5.90
 _ZNK5Solid7Control24ModemGsmNetworkInterface7setBandENS0_14ModemInterface4BandE@Base 4:4.5.90
 _ZNK5Solid7Control24WirelessNetworkInterface10metaObjectEv@Base 4:4.3.4
 _ZNK5Solid7Control24WirelessNetworkInterface12accessPointsEv@Base 4:4.3.4
 _ZNK5Solid7Control24WirelessNetworkInterface15findAccessPointERK7QString@Base 4:4.3.4
 _ZNK5Solid7Control24WirelessNetworkInterface15hardwareAddressEv@Base 4:4.3.4
 _ZNK5Solid7Control24WirelessNetworkInterface17activeAccessPointEv@Base 4:4.3.4
 _ZNK5Solid7Control24WirelessNetworkInterface20wirelessCapabilitiesEv@Base 4:4.3.4
 _ZNK5Solid7Control24WirelessNetworkInterface25findRegisteredAccessPointERK7QString@Base 4:4.3.4
 _ZNK5Solid7Control24WirelessNetworkInterface4modeEv@Base 4:4.3.4
 _ZNK5Solid7Control24WirelessNetworkInterface4typeEv@Base 4:4.3.4
 _ZNK5Solid7Control24WirelessNetworkInterface7bitRateEv@Base 4:4.3.4
 _ZNK5Solid7Control25ModemGsmContactsInterface10addContactERK7QStringS4_@Base 4:4.5.90
 _ZNK5Solid7Control25ModemGsmContactsInterface10metaObjectEv@Base 4:4.5.90
 _ZNK5Solid7Control25ModemGsmContactsInterface13deleteContactEi@Base 4:4.5.90
 _ZNK5Solid7Control25ModemGsmContactsInterface3getEi@Base 4:4.5.90
 _ZNK5Solid7Control25ModemGsmContactsInterface4findERK7QString@Base 4:4.5.90
 _ZNK5Solid7Control25ModemGsmContactsInterface4listEv@Base 4:4.5.90
 _ZNK5Solid7Control25ModemGsmContactsInterface8getCountEv@Base 4:4.5.90
 _ZNK5Solid7Control9IPv4Route5routeEv@Base 4:4.3.4
 _ZNK5Solid7Control9IPv4Route6metricEv@Base 4:4.3.4
 _ZNK5Solid7Control9IPv4Route6prefixEv@Base 4:4.3.4
 _ZNK5Solid7Control9IPv4Route7isValidEv@Base 4:4.3.4
 _ZNK5Solid7Control9IPv4Route7nextHopEv@Base 4:4.3.4
 _ZTIN5Solid7Control11AccessPointE@Base 4:4.3.4
 _ZTIN5Solid7Control12ModemManager8NotifierE@Base 4:4.5.90
 _ZTIN5Solid7Control13RemoteControlE@Base 4:4.4.0
 _ZTIN5Solid7Control14ModemInterfaceE@Base 4:4.5.90
 _ZTIN5Solid7Control14NetworkManager8NotifierE@Base 4:4.3.4
 _ZTIN5Solid7Control16NetworkInterfaceE@Base 4:4.3.4
 _ZTIN5Solid7Control18ModemCdmaInterfaceE@Base 4:4.5.90
 _ZTIN5Solid7Control19GsmNetworkInterfaceE@Base 4:4.3.4
 _ZTIN5Solid7Control20CdmaNetworkInterfaceE@Base 4:4.3.4
 _ZTIN5Solid7Control20ModemGsmHsoInterfaceE@Base 4:4.5.90
 _ZTIN5Solid7Control20ModemGsmSmsInterfaceE@Base 4:4.5.90
 _ZTIN5Solid7Control20RemoteControlManager8NotifierE@Base 4:4.4.0
 _ZTIN5Solid7Control21ModemGsmCardInterfaceE@Base 4:4.5.90
 _ZTIN5Solid7Control21ModemGsmUssdInterfaceE@Base 4:4.5.90
 _ZTIN5Solid7Control21ModemManagerInterfaceE@Base 4:4.5.90
 _ZTIN5Solid7Control21WiredNetworkInterfaceE@Base 4:4.3.4
 _ZTIN5Solid7Control22ModemLocationInterfaceE@Base 4:4.5.90
 _ZTIN5Solid7Control22SerialNetworkInterfaceE@Base 4:4.3.4
 _ZTIN5Solid7Control24ModemGsmNetworkInterfaceE@Base 4:4.5.90
 _ZTIN5Solid7Control24WirelessNetworkInterfaceE@Base 4:4.3.4
 _ZTIN5Solid7Control25ModemGsmContactsInterfaceE@Base 4:4.5.90
 _ZTSN5Solid7Control11AccessPointE@Base 4:4.3.4
 _ZTSN5Solid7Control12ModemManager8NotifierE@Base 4:4.5.90
 _ZTSN5Solid7Control13RemoteControlE@Base 4:4.4.0
 _ZTSN5Solid7Control14ModemInterfaceE@Base 4:4.5.90
 _ZTSN5Solid7Control14NetworkManager8NotifierE@Base 4:4.3.4
 _ZTSN5Solid7Control16NetworkInterfaceE@Base 4:4.3.4
 _ZTSN5Solid7Control18ModemCdmaInterfaceE@Base 4:4.5.90
 _ZTSN5Solid7Control19GsmNetworkInterfaceE@Base 4:4.3.4
 _ZTSN5Solid7Control20CdmaNetworkInterfaceE@Base 4:4.3.4
 _ZTSN5Solid7Control20ModemGsmHsoInterfaceE@Base 4:4.5.90
 _ZTSN5Solid7Control20ModemGsmSmsInterfaceE@Base 4:4.5.90
 _ZTSN5Solid7Control20RemoteControlManager8NotifierE@Base 4:4.4.0
 _ZTSN5Solid7Control21ModemGsmCardInterfaceE@Base 4:4.5.90
 _ZTSN5Solid7Control21ModemGsmUssdInterfaceE@Base 4:4.5.90
 _ZTSN5Solid7Control21ModemManagerInterfaceE@Base 4:4.5.90
 _ZTSN5Solid7Control21WiredNetworkInterfaceE@Base 4:4.3.4
 _ZTSN5Solid7Control22ModemLocationInterfaceE@Base 4:4.5.90
 _ZTSN5Solid7Control22SerialNetworkInterfaceE@Base 4:4.3.4
 _ZTSN5Solid7Control24ModemGsmNetworkInterfaceE@Base 4:4.5.90
 _ZTSN5Solid7Control24WirelessNetworkInterfaceE@Base 4:4.3.4
 _ZTSN5Solid7Control25ModemGsmContactsInterfaceE@Base 4:4.5.90
 _ZTVN5Solid7Control11AccessPointE@Base 4:4.3.4
 _ZTVN5Solid7Control12ModemManager8NotifierE@Base 4:4.5.90
 _ZTVN5Solid7Control13RemoteControlE@Base 4:4.4.0
 _ZTVN5Solid7Control14ModemInterfaceE@Base 4:4.5.90
 _ZTVN5Solid7Control14NetworkManager8NotifierE@Base 4:4.3.4
 _ZTVN5Solid7Control16NetworkInterfaceE@Base 4:4.3.4
 _ZTVN5Solid7Control18ModemCdmaInterfaceE@Base 4:4.5.90
 _ZTVN5Solid7Control19GsmNetworkInterfaceE@Base 4:4.3.4
 _ZTVN5Solid7Control20CdmaNetworkInterfaceE@Base 4:4.3.4
 _ZTVN5Solid7Control20ModemGsmHsoInterfaceE@Base 4:4.5.90
 _ZTVN5Solid7Control20ModemGsmSmsInterfaceE@Base 4:4.5.90
 _ZTVN5Solid7Control20RemoteControlManager8NotifierE@Base 4:4.4.0
 _ZTVN5Solid7Control21ModemGsmCardInterfaceE@Base 4:4.5.90
 _ZTVN5Solid7Control21ModemGsmUssdInterfaceE@Base 4:4.5.90
 _ZTVN5Solid7Control21ModemManagerInterfaceE@Base 4:4.5.90
 _ZTVN5Solid7Control21WiredNetworkInterfaceE@Base 4:4.3.4
 _ZTVN5Solid7Control22ModemLocationInterfaceE@Base 4:4.5.90
 _ZTVN5Solid7Control22SerialNetworkInterfaceE@Base 4:4.3.4
 _ZTVN5Solid7Control24ModemGsmNetworkInterfaceE@Base 4:4.5.90
 _ZTVN5Solid7Control24WirelessNetworkInterfaceE@Base 4:4.3.4
 _ZTVN5Solid7Control25ModemGsmContactsInterfaceE@Base 4:4.5.90
