# SymbolsHelper-Confirmed: 4:4.5.0 amd64
libsolidcontrol.so.4 libsolidcontrol4a #MINVER#
* Build-Depends-Package: kdebase-workspace-dev
 _ZN5Solid7Control10IPv4ConfigC1ERK5QListINS0_11IPv4AddressEERKS2_IjERK11QStringListRKS2_INS0_9IPv4RouteEE@Base 4:4.3.4
 _ZN5Solid7Control10IPv4ConfigC1ERKS1_@Base 4:4.3.4
 _ZN5Solid7Control10IPv4ConfigC1Ev@Base 4:4.3.4
 _ZN5Solid7Control10IPv4ConfigC2ERK5QListINS0_11IPv4AddressEERKS2_IjERK11QStringListRKS2_INS0_9IPv4RouteEE@Base 4:4.3.4
 _ZN5Solid7Control10IPv4ConfigC2ERKS1_@Base 4:4.3.4
 _ZN5Solid7Control10IPv4ConfigC2Ev@Base 4:4.3.4
 _ZN5Solid7Control10IPv4ConfigD1Ev@Base 4:4.3.4
 _ZN5Solid7Control10IPv4ConfigD2Ev@Base 4:4.3.4
 _ZN5Solid7Control10IPv4ConfigaSERKS1_@Base 4:4.3.4
 _ZN5Solid7Control10Networking17releaseConnectionEv@Base 4:4.3.4
 _ZN5Solid7Control10Networking17requestConnectionEP7QObjectPKc@Base 4:4.3.4
 _ZN5Solid7Control11AccessPoint11qt_metacallEN11QMetaObject4CallEiPPv@Base 4:4.3.4
 _ZN5Solid7Control11AccessPoint11qt_metacastEPKc@Base 4:4.3.4
 _ZN5Solid7Control11AccessPoint12_k_destroyedEP7QObject@Base 4:4.3.4
 _ZN5Solid7Control11AccessPoint14bitRateChangedEi@Base 4:4.3.4
 _ZN5Solid7Control11AccessPoint16staticMetaObjectE@Base 4:4.3.4
 _ZN5Solid7Control11AccessPoint21signalStrengthChangedEi@Base 4:4.3.4
 _ZN5Solid7Control11AccessPointC1EP7QObject@Base 4:4.3.4
 _ZN5Solid7Control11AccessPointC1ERKS1_@Base 4:4.3.4
 _ZN5Solid7Control11AccessPointC1ERNS0_18AccessPointPrivateEP7QObject@Base 4:4.3.4
 _ZN5Solid7Control11AccessPointC1ERNS0_18AccessPointPrivateERKS1_@Base 4:4.3.4
 _ZN5Solid7Control11AccessPointC2EP7QObject@Base 4:4.3.4
 _ZN5Solid7Control11AccessPointC2ERKS1_@Base 4:4.3.4
 _ZN5Solid7Control11AccessPointC2ERNS0_18AccessPointPrivateEP7QObject@Base 4:4.3.4
 _ZN5Solid7Control11AccessPointC2ERNS0_18AccessPointPrivateERKS1_@Base 4:4.3.4
 _ZN5Solid7Control11AccessPointD0Ev@Base 4:4.3.4
 _ZN5Solid7Control11AccessPointD1Ev@Base 4:4.3.4
 _ZN5Solid7Control11AccessPointD2Ev@Base 4:4.3.4
 _ZN5Solid7Control11IPv4AddressC1ERKS1_@Base 4:4.3.4
 _ZN5Solid7Control11IPv4AddressC1Ejjj@Base 4:4.3.4
 _ZN5Solid7Control11IPv4AddressC1Ev@Base 4:4.3.4
 _ZN5Solid7Control11IPv4AddressC2ERKS1_@Base 4:4.3.4
 _ZN5Solid7Control11IPv4AddressC2Ejjj@Base 4:4.3.4
 _ZN5Solid7Control11IPv4AddressC2Ev@Base 4:4.3.4
 _ZN5Solid7Control11IPv4AddressD1Ev@Base 4:4.3.4
 _ZN5Solid7Control11IPv4AddressD2Ev@Base 4:4.3.4
 _ZN5Solid7Control11IPv4AddressaSERKS1_@Base 4:4.3.4
 _ZN5Solid7Control12PowerManager10brightnessERK7QString@Base 4:4.3.4
 _ZN5Solid7Control12PowerManager12batteryStateEv@Base 4:4.3.4
 _ZN5Solid7Control12PowerManager12setPowerSaveEb@Base 4:4.5.0
 _ZN5Solid7Control12PowerManager13canDisableCpuEi@Base 4:4.3.4
 _ZN5Solid7Control12PowerManager13cpuFreqPolicyEv@Base 4:4.3.4
 _ZN5Solid7Control12PowerManager13setBrightnessEfRK7QString@Base 4:4.3.4
 _ZN5Solid7Control12PowerManager13setCpuEnabledEib@Base 4:4.3.4
 _ZN5Solid7Control12PowerManager14acAdapterStateEv@Base 4:4.3.4
 _ZN5Solid7Control12PowerManager16setCpuFreqPolicyENS1_13CpuFreqPolicyE@Base 4:4.3.4
 _ZN5Solid7Control12PowerManager20batteryChargePercentEv@Base 4:4.3.4
 _ZN5Solid7Control12PowerManager20batteryRemainingTimeEv@Base 4:4.3.4
 _ZN5Solid7Control12PowerManager20brightnessKeyPressedENS1_17BrightnessKeyTypeE@Base 4:4.5.0
 _ZN5Solid7Control12PowerManager23supportedSuspendMethodsEv@Base 4:4.3.4
 _ZN5Solid7Control12PowerManager24supportedCpuFreqPoliciesEv@Base 4:4.3.4
 _ZN5Solid7Control12PowerManager27brightnessControlsAvailableEv@Base 4:4.3.4
 _ZN5Solid7Control12PowerManager7suspendENS1_13SuspendMethodE@Base 4:4.3.4
 _ZN5Solid7Control12PowerManager8Notifier11qt_metacallEN11QMetaObject4CallEiPPv@Base 4:4.3.4
 _ZN5Solid7Control12PowerManager8Notifier11qt_metacastEPKc@Base 4:4.3.4
 _ZN5Solid7Control12PowerManager8Notifier13buttonPressedEi@Base 4:4.3.4
 _ZN5Solid7Control12PowerManager8Notifier16staticMetaObjectE@Base 4:4.3.4
 _ZN5Solid7Control12PowerManager8Notifier17brightnessChangedEf@Base 4:4.3.4
 _ZN5Solid7Control12PowerManager8Notifier19batteryStateChangedEi@Base 4:4.3.4
 _ZN5Solid7Control12PowerManager8Notifier21acAdapterStateChangedEi@Base 4:4.3.4
 _ZN5Solid7Control12PowerManager8Notifier27batteryRemainingTimeChangedEi@Base 4:4.3.4
 _ZN5Solid7Control12PowerManager8notifierEv@Base 4:4.3.4
 _ZN5Solid7Control13RemoteControl10allRemotesEv@Base 4:4.4.0
 _ZN5Solid7Control13RemoteControl11qt_metacallEN11QMetaObject4CallEiPPv@Base 4:4.4.0
 _ZN5Solid7Control13RemoteControl11qt_metacastEPKc@Base 4:4.4.0
 _ZN5Solid7Control13RemoteControl13buttonPressedERKNS0_19RemoteControlButtonE@Base 4:4.4.0
 _ZN5Solid7Control13RemoteControl14allRemoteNamesEv@Base 4:4.4.0
 _ZN5Solid7Control13RemoteControl16staticMetaObjectE@Base 4:4.4.0
 _ZN5Solid7Control13RemoteControlC1EP7QObject@Base 4:4.4.0
 _ZN5Solid7Control13RemoteControlC1ERK7QString@Base 4:4.4.0
 _ZN5Solid7Control13RemoteControlC1ERKS1_@Base 4:4.4.0
 _ZN5Solid7Control13RemoteControlC1ERNS0_20RemoteControlPrivateEP7QObject@Base 4:4.4.0
 _ZN5Solid7Control13RemoteControlC1ERNS0_20RemoteControlPrivateERKS1_@Base 4:4.4.0
 _ZN5Solid7Control13RemoteControlC2EP7QObject@Base 4:4.4.0
 _ZN5Solid7Control13RemoteControlC2ERK7QString@Base 4:4.4.0
 _ZN5Solid7Control13RemoteControlC2ERKS1_@Base 4:4.4.0
 _ZN5Solid7Control13RemoteControlC2ERNS0_20RemoteControlPrivateEP7QObject@Base 4:4.4.0
 _ZN5Solid7Control13RemoteControlC2ERNS0_20RemoteControlPrivateERKS1_@Base 4:4.4.0
 _ZN5Solid7Control13RemoteControlD0Ev@Base 4:4.4.0
 _ZN5Solid7Control13RemoteControlD1Ev@Base 4:4.4.0
 _ZN5Solid7Control13RemoteControlD2Ev@Base 4:4.4.0
 _ZN5Solid7Control14NetworkManager17activeConnectionsEv@Base 4:4.3.4
 _ZN5Solid7Control14NetworkManager17isWirelessEnabledEv@Base 4:4.3.4
 _ZN5Solid7Control14NetworkManager17networkInterfacesEv@Base 4:4.3.4
 _ZN5Solid7Control14NetworkManager18activateConnectionERK7QStringS4_RK4QMapIS2_8QVariantE@Base 4:4.3.4
 _ZN5Solid7Control14NetworkManager18setWirelessEnabledEb@Base 4:4.3.4
 _ZN5Solid7Control14NetworkManager19isNetworkingEnabledEv@Base 4:4.3.4
 _ZN5Solid7Control14NetworkManager20deactivateConnectionERK7QString@Base 4:4.3.4
 _ZN5Solid7Control14NetworkManager20findNetworkInterfaceERK7QString@Base 4:4.3.4
 _ZN5Solid7Control14NetworkManager20setNetworkingEnabledEb@Base 4:4.3.4
 _ZN5Solid7Control14NetworkManager23supportedInterfaceTypesEv@Base 4:4.3.4
 _ZN5Solid7Control14NetworkManager25isWirelessHardwareEnabledEv@Base 4:4.3.4
 _ZN5Solid7Control14NetworkManager6statusEv@Base 4:4.3.4
 _ZN5Solid7Control14NetworkManager8Notifier11qt_metacallEN11QMetaObject4CallEiPPv@Base 4:4.3.4
 _ZN5Solid7Control14NetworkManager8Notifier11qt_metacastEPKc@Base 4:4.3.4
 _ZN5Solid7Control14NetworkManager8Notifier13statusChangedENS_10Networking6StatusE@Base 4:4.3.4
 _ZN5Solid7Control14NetworkManager8Notifier16staticMetaObjectE@Base 4:4.3.4
 _ZN5Solid7Control14NetworkManager8Notifier21networkInterfaceAddedERK7QString@Base 4:4.3.4
 _ZN5Solid7Control14NetworkManager8Notifier22wirelessEnabledChangedEb@Base 4:4.3.4
 _ZN5Solid7Control14NetworkManager8Notifier23networkInterfaceRemovedERK7QString@Base 4:4.3.4
 _ZN5Solid7Control14NetworkManager8Notifier24activeConnectionsChangedEv@Base 4:4.3.4
 _ZN5Solid7Control14NetworkManager8Notifier30wirelessHardwareEnabledChangedEb@Base 4:4.3.4
 _ZN5Solid7Control14NetworkManager8notifierEv@Base 4:4.3.4
 _ZN5Solid7Control16BluetoothManager11qt_metacallEN11QMetaObject4CallEiPPv@Base 4:4.3.4
 _ZN5Solid7Control16BluetoothManager11qt_metacastEPKc@Base 4:4.3.4
 _ZN5Solid7Control16BluetoothManager14interfaceAddedERK7QString@Base 4:4.3.4
 _ZN5Solid7Control16BluetoothManager16interfaceRemovedERK7QString@Base 4:4.3.4
 _ZN5Solid7Control16BluetoothManager16staticMetaObjectE@Base 4:4.3.4
 _ZN5Solid7Control16BluetoothManager23defaultInterfaceChangedERK7QString@Base 4:4.3.4
 _ZN5Solid7Control16BluetoothManager4selfEv@Base 4:4.3.4
 _ZN5Solid7Control16BluetoothManagerC1Ev@Base 4:4.3.4
 _ZN5Solid7Control16BluetoothManagerC2Ev@Base 4:4.3.4
 _ZN5Solid7Control16BluetoothManagerD0Ev@Base 4:4.3.4
 _ZN5Solid7Control16BluetoothManagerD1Ev@Base 4:4.3.4
 _ZN5Solid7Control16BluetoothManagerD2Ev@Base 4:4.3.4
 _ZN5Solid7Control16NetworkInterface11qt_metacallEN11QMetaObject4CallEiPPv@Base 4:4.3.4
 _ZN5Solid7Control16NetworkInterface11qt_metacastEPKc@Base 4:4.3.4
 _ZN5Solid7Control16NetworkInterface13linkUpChangedEb@Base 4:4.3.4
 _ZN5Solid7Control16NetworkInterface16ipDetailsChangedEv@Base 4:4.3.4
 _ZN5Solid7Control16NetworkInterface16staticMetaObjectE@Base 4:4.3.4
 _ZN5Solid7Control16NetworkInterface22connectionStateChangedEi@Base 4:4.3.4
 _ZN5Solid7Control16NetworkInterface22connectionStateChangedEiii@Base 4:4.3.4
 _ZN5Solid7Control16NetworkInterfaceC1EP7QObject@Base 4:4.3.4
 _ZN5Solid7Control16NetworkInterfaceC1ERKS1_@Base 4:4.3.4
 _ZN5Solid7Control16NetworkInterfaceC1ERNS0_23NetworkInterfacePrivateEP7QObject@Base 4:4.3.4
 _ZN5Solid7Control16NetworkInterfaceC1ERNS0_23NetworkInterfacePrivateERKS1_@Base 4:4.3.4
 _ZN5Solid7Control16NetworkInterfaceC2EP7QObject@Base 4:4.3.4
 _ZN5Solid7Control16NetworkInterfaceC2ERKS1_@Base 4:4.3.4
 _ZN5Solid7Control16NetworkInterfaceC2ERNS0_23NetworkInterfacePrivateEP7QObject@Base 4:4.3.4
 _ZN5Solid7Control16NetworkInterfaceC2ERNS0_23NetworkInterfacePrivateERKS1_@Base 4:4.3.4
 _ZN5Solid7Control16NetworkInterfaceD0Ev@Base 4:4.3.4
 _ZN5Solid7Control16NetworkInterfaceD1Ev@Base 4:4.3.4
 _ZN5Solid7Control16NetworkInterfaceD2Ev@Base 4:4.3.4
 _ZN5Solid7Control17BluetoothSecurity11qt_metacallEN11QMetaObject4CallEiPPv@Base 4:4.3.4
 _ZN5Solid7Control17BluetoothSecurity11qt_metacastEPKc@Base 4:4.3.4
 _ZN5Solid7Control17BluetoothSecurity15setPasskeyAgentEPNS0_21BluetoothPasskeyAgentE@Base 4:4.3.4
 _ZN5Solid7Control17BluetoothSecurity16staticMetaObjectE@Base 4:4.3.4
 _ZN5Solid7Control17BluetoothSecurity21setAuthorizationAgentEPNS0_27BluetoothAuthorizationAgentE@Base 4:4.3.4
 _ZN5Solid7Control17BluetoothSecurityC1EP7QObject@Base 4:4.3.4
 _ZN5Solid7Control17BluetoothSecurityC1Ev@Base 4:4.3.4
 _ZN5Solid7Control17BluetoothSecurityC2EP7QObject@Base 4:4.3.4
 _ZN5Solid7Control17BluetoothSecurityC2Ev@Base 4:4.3.4
 _ZN5Solid7Control17BluetoothSecurityD0Ev@Base 4:4.3.4
 _ZN5Solid7Control17BluetoothSecurityD1Ev@Base 4:4.3.4
 _ZN5Solid7Control17BluetoothSecurityD2Ev@Base 4:4.3.4
 _ZN5Solid7Control17BluetoothSecurityaSERKS1_@Base 4:4.3.4
 _ZN5Solid7Control18BluetoothInterface11deviceFoundERK7QStringRK4QMapIS2_8QVariantE@Base 4:4.3.4
 _ZN5Solid7Control18BluetoothInterface11qt_metacallEN11QMetaObject4CallEiPPv@Base 4:4.3.4
 _ZN5Solid7Control18BluetoothInterface11qt_metacastEPKc@Base 4:4.3.4
 _ZN5Solid7Control18BluetoothInterface13deviceCreatedERK7QString@Base 4:4.3.4
 _ZN5Solid7Control18BluetoothInterface13deviceRemovedERK7QString@Base 4:4.3.4
 _ZN5Solid7Control18BluetoothInterface15propertyChangedERK7QStringRK8QVariant@Base 4:4.3.4
 _ZN5Solid7Control18BluetoothInterface15setDiscoverableEb@Base 4:4.3.4
 _ZN5Solid7Control18BluetoothInterface16staticMetaObjectE@Base 4:4.3.4
 _ZN5Solid7Control18BluetoothInterface17deviceDisappearedERK7QString@Base 4:4.3.4
 _ZN5Solid7Control18BluetoothInterface17slotDeviceCreatedERK7QString@Base 4:4.3.4
 _ZN5Solid7Control18BluetoothInterface22setDiscoverableTimeoutEi@Base 4:4.3.4
 _ZN5Solid7Control18BluetoothInterface27createBluetoothRemoteDeviceERK7QString@Base 4:4.3.4
 _ZN5Solid7Control18BluetoothInterface7setNameERK7QString@Base 4:4.3.4
 _ZN5Solid7Control18BluetoothInterfaceC1EP7QObject@Base 4:4.3.4
 _ZN5Solid7Control18BluetoothInterfaceC1ERK7QString@Base 4:4.3.4
 _ZN5Solid7Control18BluetoothInterfaceC1ERKS1_@Base 4:4.3.4
 _ZN5Solid7Control18BluetoothInterfaceC1Ev@Base 4:4.3.4
 _ZN5Solid7Control18BluetoothInterfaceC2EP7QObject@Base 4:4.3.4
 _ZN5Solid7Control18BluetoothInterfaceC2ERK7QString@Base 4:4.3.4
 _ZN5Solid7Control18BluetoothInterfaceC2ERKS1_@Base 4:4.3.4
 _ZN5Solid7Control18BluetoothInterfaceC2Ev@Base 4:4.3.4
 _ZN5Solid7Control18BluetoothInterfaceD0Ev@Base 4:4.3.4
 _ZN5Solid7Control18BluetoothInterfaceD1Ev@Base 4:4.3.4
 _ZN5Solid7Control18BluetoothInterfaceD2Ev@Base 4:4.3.4
 _ZN5Solid7Control18BluetoothInterfaceaSERKS1_@Base 4:4.3.4
 _ZN5Solid7Control18ManagerBasePrivate24_k_forcePreloadedBackendEPKcP7QObject@Base 4:4.3.4
 _ZN5Solid7Control19GsmNetworkInterface11qt_metacallEN11QMetaObject4CallEiPPv@Base 4:4.3.4
 _ZN5Solid7Control19GsmNetworkInterface11qt_metacastEPKc@Base 4:4.3.4
 _ZN5Solid7Control19GsmNetworkInterface12_k_destroyedEP7QObject@Base 4:4.3.4
 _ZN5Solid7Control19GsmNetworkInterface15makeConnectionsEP7QObject@Base 4:4.3.4
 _ZN5Solid7Control19GsmNetworkInterface16staticMetaObjectE@Base 4:4.3.4
 _ZN5Solid7Control19GsmNetworkInterfaceC1EP7QObject@Base 4:4.3.4
 _ZN5Solid7Control19GsmNetworkInterfaceC1ERKS1_@Base 4:4.3.4
 _ZN5Solid7Control19GsmNetworkInterfaceC1ERNS0_26GsmNetworkInterfacePrivateEP7QObject@Base 4:4.3.4
 _ZN5Solid7Control19GsmNetworkInterfaceC1ERNS0_26GsmNetworkInterfacePrivateERKS1_@Base 4:4.3.4
 _ZN5Solid7Control19GsmNetworkInterfaceC2EP7QObject@Base 4:4.3.4
 _ZN5Solid7Control19GsmNetworkInterfaceC2ERKS1_@Base 4:4.3.4
 _ZN5Solid7Control19GsmNetworkInterfaceC2ERNS0_26GsmNetworkInterfacePrivateEP7QObject@Base 4:4.3.4
 _ZN5Solid7Control19GsmNetworkInterfaceC2ERNS0_26GsmNetworkInterfacePrivateERKS1_@Base 4:4.3.4
 _ZN5Solid7Control19GsmNetworkInterfaceD0Ev@Base 4:4.3.4
 _ZN5Solid7Control19GsmNetworkInterfaceD1Ev@Base 4:4.3.4
 _ZN5Solid7Control19GsmNetworkInterfaceD2Ev@Base 4:4.3.4
 _ZN5Solid7Control19RemoteControlButtonC1ERK7QStringNS1_8ButtonIdEi@Base 4:4.4.0
 _ZN5Solid7Control19RemoteControlButtonC1ERK7QStringS4_i@Base 4:4.4.0
 _ZN5Solid7Control19RemoteControlButtonC1ERKS1_@Base 4:4.4.0
 _ZN5Solid7Control19RemoteControlButtonC2ERK7QStringNS1_8ButtonIdEi@Base 4:4.4.0
 _ZN5Solid7Control19RemoteControlButtonC2ERK7QStringS4_i@Base 4:4.4.0
 _ZN5Solid7Control19RemoteControlButtonC2ERKS1_@Base 4:4.4.0
 _ZN5Solid7Control19RemoteControlButtonD1Ev@Base 4:4.4.0
 _ZN5Solid7Control19RemoteControlButtonD2Ev@Base 4:4.4.0
 _ZN5Solid7Control20BluetoothInputDevice10disconnectEv@Base 4:4.3.4
 _ZN5Solid7Control20BluetoothInputDevice11qt_metacallEN11QMetaObject4CallEiPPv@Base 4:4.3.4
 _ZN5Solid7Control20BluetoothInputDevice11qt_metacastEPKc@Base 4:4.3.4
 _ZN5Solid7Control20BluetoothInputDevice15propertyChangedERK7QStringRK8QVariant@Base 4:4.3.4
 _ZN5Solid7Control20BluetoothInputDevice16staticMetaObjectE@Base 4:4.3.4
 _ZN5Solid7Control20BluetoothInputDevice7connectEv@Base 4:4.3.4
 _ZN5Solid7Control20BluetoothInputDeviceC1EP7QObject@Base 4:4.3.4
 _ZN5Solid7Control20BluetoothInputDeviceC1ERKS1_@Base 4:4.3.4
 _ZN5Solid7Control20BluetoothInputDeviceC2EP7QObject@Base 4:4.3.4
 _ZN5Solid7Control20BluetoothInputDeviceC2ERKS1_@Base 4:4.3.4
 _ZN5Solid7Control20BluetoothInputDeviceD0Ev@Base 4:4.3.4
 _ZN5Solid7Control20BluetoothInputDeviceD1Ev@Base 4:4.3.4
 _ZN5Solid7Control20BluetoothInputDeviceD2Ev@Base 4:4.3.4
 _ZN5Solid7Control20BluetoothInputDeviceaSERKS1_@Base 4:4.3.4
 _ZN5Solid7Control20CdmaNetworkInterface11qt_metacallEN11QMetaObject4CallEiPPv@Base 4:4.3.4
 _ZN5Solid7Control20CdmaNetworkInterface11qt_metacastEPKc@Base 4:4.3.4
 _ZN5Solid7Control20CdmaNetworkInterface12_k_destroyedEP7QObject@Base 4:4.3.4
 _ZN5Solid7Control20CdmaNetworkInterface15makeConnectionsEP7QObject@Base 4:4.3.4
 _ZN5Solid7Control20CdmaNetworkInterface16staticMetaObjectE@Base 4:4.3.4
 _ZN5Solid7Control20CdmaNetworkInterfaceC1EP7QObject@Base 4:4.3.4
 _ZN5Solid7Control20CdmaNetworkInterfaceC1ERKS1_@Base 4:4.3.4
 _ZN5Solid7Control20CdmaNetworkInterfaceC1ERNS0_27CdmaNetworkInterfacePrivateEP7QObject@Base 4:4.3.4
 _ZN5Solid7Control20CdmaNetworkInterfaceC1ERNS0_27CdmaNetworkInterfacePrivateERKS1_@Base 4:4.3.4
 _ZN5Solid7Control20CdmaNetworkInterfaceC2EP7QObject@Base 4:4.3.4
 _ZN5Solid7Control20CdmaNetworkInterfaceC2ERKS1_@Base 4:4.3.4
 _ZN5Solid7Control20CdmaNetworkInterfaceC2ERNS0_27CdmaNetworkInterfacePrivateEP7QObject@Base 4:4.3.4
 _ZN5Solid7Control20CdmaNetworkInterfaceC2ERNS0_27CdmaNetworkInterfacePrivateERKS1_@Base 4:4.3.4
 _ZN5Solid7Control20CdmaNetworkInterfaceD0Ev@Base 4:4.3.4
 _ZN5Solid7Control20CdmaNetworkInterfaceD1Ev@Base 4:4.3.4
 _ZN5Solid7Control20CdmaNetworkInterfaceD2Ev@Base 4:4.3.4
 _ZN5Solid7Control20RemoteControlManager8Notifier11qt_metacallEN11QMetaObject4CallEiPPv@Base 4:4.4.0
 _ZN5Solid7Control20RemoteControlManager8Notifier11qt_metacastEPKc@Base 4:4.4.0
 _ZN5Solid7Control20RemoteControlManager8Notifier13statusChangedEb@Base 4:4.4.0
 _ZN5Solid7Control20RemoteControlManager8Notifier16staticMetaObjectE@Base 4:4.4.0
 _ZN5Solid7Control20RemoteControlManager8Notifier18remoteControlAddedERK7QString@Base 4:4.4.0
 _ZN5Solid7Control20RemoteControlManager8Notifier20remoteControlRemovedERK7QString@Base 4:4.4.0
 _ZN5Solid7Control20RemoteControlManager8notifierEv@Base 4:4.4.0
 _ZN5Solid7Control20RemoteControlManager9connectedEv@Base 4:4.4.0
 _ZN5Solid7Control21BluetoothPasskeyAgent11qt_metacallEN11QMetaObject4CallEiPPv@Base 4:4.3.4
 _ZN5Solid7Control21BluetoothPasskeyAgent11qt_metacastEPKc@Base 4:4.3.4
 _ZN5Solid7Control21BluetoothPasskeyAgent14confirmPasskeyERK7QStringS4_@Base 4:4.3.4
 _ZN5Solid7Control21BluetoothPasskeyAgent14displayPasskeyERK7QStringS4_@Base 4:4.3.4
 _ZN5Solid7Control21BluetoothPasskeyAgent14requestPasskeyERK7QStringb@Base 4:4.3.4
 _ZN5Solid7Control21BluetoothPasskeyAgent16staticMetaObjectE@Base 4:4.3.4
 _ZN5Solid7Control21BluetoothPasskeyAgent20cancelAuthenticationERK7QString@Base 4:4.3.4
 _ZN5Solid7Control21BluetoothPasskeyAgent23completedAuthenticationERK7QString@Base 4:4.3.4
 _ZN5Solid7Control21BluetoothPasskeyAgent6remoteEv@Base 4:4.3.4
 _ZN5Solid7Control21BluetoothPasskeyAgent8keypressERK7QString@Base 4:4.3.4
 _ZN5Solid7Control21BluetoothPasskeyAgentC1EP7QObjectRK7QString@Base 4:4.3.4
 _ZN5Solid7Control21BluetoothPasskeyAgentC2EP7QObjectRK7QString@Base 4:4.3.4
 _ZN5Solid7Control21BluetoothRemoteDevice10disconnectEv@Base 4:4.3.4
 _ZN5Solid7Control21BluetoothRemoteDevice10setTrustedEb@Base 4:4.3.4
 _ZN5Solid7Control21BluetoothRemoteDevice11getPropertyERK7QString@Base 4:4.3.4
 _ZN5Solid7Control21BluetoothRemoteDevice11isConnectedEv@Base 4:4.3.4
 _ZN5Solid7Control21BluetoothRemoteDevice11qt_metacallEN11QMetaObject4CallEiPPv@Base 4:4.3.4
 _ZN5Solid7Control21BluetoothRemoteDevice11qt_metacastEPKc@Base 4:4.3.4
 _ZN5Solid7Control21BluetoothRemoteDevice11setPropertyERK7QStringRK8QVariant@Base 4:4.3.4
 _ZN5Solid7Control21BluetoothRemoteDevice13getPropertiesEv@Base 4:4.3.4
 _ZN5Solid7Control21BluetoothRemoteDevice15cancelDiscoveryEv@Base 4:4.3.4
 _ZN5Solid7Control21BluetoothRemoteDevice15propertyChangedERK7QStringRK8QVariant@Base 4:4.3.4
 _ZN5Solid7Control21BluetoothRemoteDevice16discoverServicesERK7QString@Base 4:4.3.4
 _ZN5Solid7Control21BluetoothRemoteDevice16staticMetaObjectE@Base 4:4.3.4
 _ZN5Solid7Control21BluetoothRemoteDevice19disconnectRequestedEv@Base 4:4.3.4
 _ZN5Solid7Control21BluetoothRemoteDevice24serviceDiscoverAvailableERK7QStringRK4QMapIjS2_E@Base 4:4.3.4
 _ZN5Solid7Control21BluetoothRemoteDevice4iconEv@Base 4:4.3.4
 _ZN5Solid7Control21BluetoothRemoteDevice4nameEv@Base 4:4.3.4
 _ZN5Solid7Control21BluetoothRemoteDevice5uuidsEv@Base 4:4.3.4
 _ZN5Solid7Control21BluetoothRemoteDevice7addressEv@Base 4:4.3.4
 _ZN5Solid7Control21BluetoothRemoteDevice9isTrustedEv@Base 4:4.3.4
 _ZN5Solid7Control21BluetoothRemoteDevice9listNodesEv@Base 4:4.3.4
 _ZN5Solid7Control21BluetoothRemoteDeviceC1EP7QObject@Base 4:4.3.4
 _ZN5Solid7Control21BluetoothRemoteDeviceC1ERKS1_@Base 4:4.3.4
 _ZN5Solid7Control21BluetoothRemoteDeviceC2EP7QObject@Base 4:4.3.4
 _ZN5Solid7Control21BluetoothRemoteDeviceC2ERKS1_@Base 4:4.3.4
 _ZN5Solid7Control21BluetoothRemoteDeviceD0Ev@Base 4:4.3.4
 _ZN5Solid7Control21BluetoothRemoteDeviceD1Ev@Base 4:4.3.4
 _ZN5Solid7Control21BluetoothRemoteDeviceD2Ev@Base 4:4.3.4
 _ZN5Solid7Control21BluetoothRemoteDeviceaSERKS1_@Base 4:4.3.4
 _ZN5Solid7Control21WiredNetworkInterface11qt_metacallEN11QMetaObject4CallEiPPv@Base 4:4.3.4
 _ZN5Solid7Control21WiredNetworkInterface11qt_metacastEPKc@Base 4:4.3.4
 _ZN5Solid7Control21WiredNetworkInterface12_k_destroyedEP7QObject@Base 4:4.3.4
 _ZN5Solid7Control21WiredNetworkInterface14bitRateChangedEi@Base 4:4.3.4
 _ZN5Solid7Control21WiredNetworkInterface14carrierChangedEb@Base 4:4.3.4
 _ZN5Solid7Control21WiredNetworkInterface16staticMetaObjectE@Base 4:4.3.4
 _ZN5Solid7Control21WiredNetworkInterfaceC1EP7QObject@Base 4:4.3.4
 _ZN5Solid7Control21WiredNetworkInterfaceC1ERKS1_@Base 4:4.3.4
 _ZN5Solid7Control21WiredNetworkInterfaceC1ERNS0_28WiredNetworkInterfacePrivateEP7QObject@Base 4:4.3.4
 _ZN5Solid7Control21WiredNetworkInterfaceC1ERNS0_28WiredNetworkInterfacePrivateERKS1_@Base 4:4.3.4
 _ZN5Solid7Control21WiredNetworkInterfaceC2EP7QObject@Base 4:4.3.4
 _ZN5Solid7Control21WiredNetworkInterfaceC2ERKS1_@Base 4:4.3.4
 _ZN5Solid7Control21WiredNetworkInterfaceC2ERNS0_28WiredNetworkInterfacePrivateEP7QObject@Base 4:4.3.4
 _ZN5Solid7Control21WiredNetworkInterfaceC2ERNS0_28WiredNetworkInterfacePrivateERKS1_@Base 4:4.3.4
 _ZN5Solid7Control21WiredNetworkInterfaceD0Ev@Base 4:4.3.4
 _ZN5Solid7Control21WiredNetworkInterfaceD1Ev@Base 4:4.3.4
 _ZN5Solid7Control21WiredNetworkInterfaceD2Ev@Base 4:4.3.4
 _ZN5Solid7Control22SerialNetworkInterface11qt_metacallEN11QMetaObject4CallEiPPv@Base 4:4.3.4
 _ZN5Solid7Control22SerialNetworkInterface11qt_metacastEPKc@Base 4:4.3.4
 _ZN5Solid7Control22SerialNetworkInterface12_k_destroyedEP7QObject@Base 4:4.3.4
 _ZN5Solid7Control22SerialNetworkInterface15makeConnectionsEP7QObject@Base 4:4.3.4
 _ZN5Solid7Control22SerialNetworkInterface16staticMetaObjectE@Base 4:4.3.4
 _ZN5Solid7Control22SerialNetworkInterface8pppStatsEjj@Base 4:4.3.4
 _ZN5Solid7Control22SerialNetworkInterfaceC1EP7QObject@Base 4:4.3.4
 _ZN5Solid7Control22SerialNetworkInterfaceC1ERKS1_@Base 4:4.3.4
 _ZN5Solid7Control22SerialNetworkInterfaceC1ERNS0_29SerialNetworkInterfacePrivateEP7QObject@Base 4:4.3.4
 _ZN5Solid7Control22SerialNetworkInterfaceC1ERNS0_29SerialNetworkInterfacePrivateERKS1_@Base 4:4.3.4
 _ZN5Solid7Control22SerialNetworkInterfaceC2EP7QObject@Base 4:4.3.4
 _ZN5Solid7Control22SerialNetworkInterfaceC2ERKS1_@Base 4:4.3.4
 _ZN5Solid7Control22SerialNetworkInterfaceC2ERNS0_29SerialNetworkInterfacePrivateEP7QObject@Base 4:4.3.4
 _ZN5Solid7Control22SerialNetworkInterfaceC2ERNS0_29SerialNetworkInterfacePrivateERKS1_@Base 4:4.3.4
 _ZN5Solid7Control22SerialNetworkInterfaceD0Ev@Base 4:4.3.4
 _ZN5Solid7Control22SerialNetworkInterfaceD1Ev@Base 4:4.3.4
 _ZN5Solid7Control22SerialNetworkInterfaceD2Ev@Base 4:4.3.4
 _ZN5Solid7Control24WirelessNetworkInterface11modeChangedENS1_13OperationModeE@Base 4:4.3.4
 _ZN5Solid7Control24WirelessNetworkInterface11qt_metacallEN11QMetaObject4CallEiPPv@Base 4:4.3.4
 _ZN5Solid7Control24WirelessNetworkInterface11qt_metacastEPKc@Base 4:4.3.4
 _ZN5Solid7Control24WirelessNetworkInterface12_k_destroyedEP7QObject@Base 4:4.3.4
 _ZN5Solid7Control24WirelessNetworkInterface14bitRateChangedEi@Base 4:4.3.4
 _ZN5Solid7Control24WirelessNetworkInterface15makeConnectionsEP7QObject@Base 4:4.3.4
 _ZN5Solid7Control24WirelessNetworkInterface16staticMetaObjectE@Base 4:4.3.4
 _ZN5Solid7Control24WirelessNetworkInterface19_k_accessPointAddedERK7QString@Base 4:4.3.4
 _ZN5Solid7Control24WirelessNetworkInterface19accessPointAppearedERK7QString@Base 4:4.3.4
 _ZN5Solid7Control24WirelessNetworkInterface21_k_accessPointRemovedERK7QString@Base 4:4.3.4
 _ZN5Solid7Control24WirelessNetworkInterface22accessPointDisappearedERK7QString@Base 4:4.3.4
 _ZN5Solid7Control24WirelessNetworkInterface24activeAccessPointChangedERK7QString@Base 4:4.3.4
 _ZN5Solid7Control24WirelessNetworkInterfaceC1EP7QObject@Base 4:4.3.4
 _ZN5Solid7Control24WirelessNetworkInterfaceC1ERKS1_@Base 4:4.3.4
 _ZN5Solid7Control24WirelessNetworkInterfaceC1ERNS0_31WirelessNetworkInterfacePrivateEP7QObject@Base 4:4.3.4
 _ZN5Solid7Control24WirelessNetworkInterfaceC1ERNS0_31WirelessNetworkInterfacePrivateERKS1_@Base 4:4.3.4
 _ZN5Solid7Control24WirelessNetworkInterfaceC2EP7QObject@Base 4:4.3.4
 _ZN5Solid7Control24WirelessNetworkInterfaceC2ERKS1_@Base 4:4.3.4
 _ZN5Solid7Control24WirelessNetworkInterfaceC2ERNS0_31WirelessNetworkInterfacePrivateEP7QObject@Base 4:4.3.4
 _ZN5Solid7Control24WirelessNetworkInterfaceC2ERNS0_31WirelessNetworkInterfacePrivateERKS1_@Base 4:4.3.4
 _ZN5Solid7Control24WirelessNetworkInterfaceD0Ev@Base 4:4.3.4
 _ZN5Solid7Control24WirelessNetworkInterfaceD1Ev@Base 4:4.3.4
 _ZN5Solid7Control24WirelessNetworkInterfaceD2Ev@Base 4:4.3.4
 _ZN5Solid7Control27BluetoothAuthorizationAgent11qt_metacallEN11QMetaObject4CallEiPPv@Base 4:4.3.4
 _ZN5Solid7Control27BluetoothAuthorizationAgent11qt_metacastEPKc@Base 4:4.3.4
 _ZN5Solid7Control27BluetoothAuthorizationAgent16staticMetaObjectE@Base 4:4.3.4
 _ZN5Solid7Control27BluetoothAuthorizationAgentC1EP7QObject@Base 4:4.3.4
 _ZN5Solid7Control27BluetoothAuthorizationAgentC2EP7QObject@Base 4:4.3.4
 _ZN5Solid7Control9IPv4RouteC1ERKS1_@Base 4:4.3.4
 _ZN5Solid7Control9IPv4RouteC1Ejjjj@Base 4:4.3.4
 _ZN5Solid7Control9IPv4RouteC1Ev@Base 4:4.3.4
 _ZN5Solid7Control9IPv4RouteC2ERKS1_@Base 4:4.3.4
 _ZN5Solid7Control9IPv4RouteC2Ejjjj@Base 4:4.3.4
 _ZN5Solid7Control9IPv4RouteC2Ev@Base 4:4.3.4
 _ZN5Solid7Control9IPv4RouteD1Ev@Base 4:4.3.4
 _ZN5Solid7Control9IPv4RouteD2Ev@Base 4:4.3.4
 _ZN5Solid7Control9IPv4RouteaSERKS1_@Base 4:4.3.4
 _ZNK5Solid7Control10IPv4Config11nameserversEv@Base 4:4.3.4
 _ZNK5Solid7Control10IPv4Config6routesEv@Base 4:4.3.4
 _ZNK5Solid7Control10IPv4Config7domainsEv@Base 4:4.3.4
 _ZNK5Solid7Control10IPv4Config7isValidEv@Base 4:4.3.4
 _ZNK5Solid7Control10IPv4Config9addressesEv@Base 4:4.3.4
 _ZNK5Solid7Control11AccessPoint10maxBitRateEv@Base 4:4.3.4
 _ZNK5Solid7Control11AccessPoint10metaObjectEv@Base 4:4.3.4
 _ZNK5Solid7Control11AccessPoint11ssidChangedERK7QString@Base 4:4.3.4
 _ZNK5Solid7Control11AccessPoint12capabilitiesEv@Base 4:4.3.4
 _ZNK5Solid7Control11AccessPoint14signalStrengthEv@Base 4:4.3.4
 _ZNK5Solid7Control11AccessPoint15hardwareAddressEv@Base 4:4.3.4
 _ZNK5Solid7Control11AccessPoint15rsnFlagsChangedE6QFlagsINS1_7WpaFlagEE@Base 4:4.3.4
 _ZNK5Solid7Control11AccessPoint15wpaFlagsChangedE6QFlagsINS1_7WpaFlagEE@Base 4:4.3.4
 _ZNK5Solid7Control11AccessPoint16frequencyChangedEj@Base 4:4.3.4
 _ZNK5Solid7Control11AccessPoint3uniEv@Base 4:4.3.4
 _ZNK5Solid7Control11AccessPoint4modeEv@Base 4:4.3.4
 _ZNK5Solid7Control11AccessPoint4ssidEv@Base 4:4.3.4
 _ZNK5Solid7Control11AccessPoint7rawSsidEv@Base 4:4.3.4
 _ZNK5Solid7Control11AccessPoint8rsnFlagsEv@Base 4:4.3.4
 _ZNK5Solid7Control11AccessPoint8wpaFlagsEv@Base 4:4.3.4
 _ZNK5Solid7Control11AccessPoint9frequencyEv@Base 4:4.3.4
 _ZNK5Solid7Control11IPv4Address7addressEv@Base 4:4.3.4
 _ZNK5Solid7Control11IPv4Address7gatewayEv@Base 4:4.3.4
 _ZNK5Solid7Control11IPv4Address7isValidEv@Base 4:4.3.4
 _ZNK5Solid7Control11IPv4Address7netMaskEv@Base 4:4.3.4
 _ZNK5Solid7Control12PowerManager8Notifier10metaObjectEv@Base 4:4.3.4
 _ZNK5Solid7Control13RemoteControl10metaObjectEv@Base 4:4.4.0
 _ZNK5Solid7Control13RemoteControl4nameEv@Base 4:4.4.0
 _ZNK5Solid7Control13RemoteControl7buttonsEv@Base 4:4.4.0
 _ZNK5Solid7Control14NetworkManager8Notifier10metaObjectEv@Base 4:4.3.4
 _ZNK5Solid7Control16BluetoothManager10metaObjectEv@Base 4:4.3.4
 _ZNK5Solid7Control16BluetoothManager13findInterfaceERK7QString@Base 4:4.3.4
 _ZNK5Solid7Control16BluetoothManager15buildDeviceListERK11QStringList@Base 4:4.3.4
 _ZNK5Solid7Control16BluetoothManager16defaultInterfaceEv@Base 4:4.3.4
 _ZNK5Solid7Control16BluetoothManager19bluetoothInterfacesEv@Base 4:4.3.4
 _ZNK5Solid7Control16BluetoothManager22findBluetoothInterfaceERK7QString@Base 4:4.3.4
 _ZNK5Solid7Control16NetworkInterface10ipV4ConfigEv@Base 4:4.3.4
 _ZNK5Solid7Control16NetworkInterface10metaObjectEv@Base 4:4.3.4
 _ZNK5Solid7Control16NetworkInterface11designSpeedEv@Base 4:4.3.4
 _ZNK5Solid7Control16NetworkInterface12capabilitiesEv@Base 4:4.3.4
 _ZNK5Solid7Control16NetworkInterface13interfaceNameEv@Base 4:4.3.4
 _ZNK5Solid7Control16NetworkInterface15connectionStateEv@Base 4:4.3.4
 _ZNK5Solid7Control16NetworkInterface3uniEv@Base 4:4.3.4
 _ZNK5Solid7Control16NetworkInterface4typeEv@Base 4:4.3.4
 _ZNK5Solid7Control16NetworkInterface6driverEv@Base 4:4.3.4
 _ZNK5Solid7Control16NetworkInterface8isActiveEv@Base 4:4.3.4
 _ZNK5Solid7Control17BluetoothSecurity10metaObjectEv@Base 4:4.3.4
 _ZNK5Solid7Control18BluetoothInterface10metaObjectEv@Base 4:4.3.4
 _ZNK5Solid7Control18BluetoothInterface11getPropertyERK7QString@Base 4:4.3.4
 _ZNK5Solid7Control18BluetoothInterface11listDevicesEv@Base 4:4.3.4
 _ZNK5Solid7Control18BluetoothInterface11setPropertyERK7QStringRK8QVariant@Base 4:4.3.4
 _ZNK5Solid7Control18BluetoothInterface12removeDeviceERK7QString@Base 4:4.3.4
 _ZNK5Solid7Control18BluetoothInterface13getPropertiesEv@Base 4:4.3.4
 _ZNK5Solid7Control18BluetoothInterface13isDiscoveringEv@Base 4:4.3.4
 _ZNK5Solid7Control18BluetoothInterface13registerAgentERK7QStringS4_@Base 4:4.3.4
 _ZNK5Solid7Control18BluetoothInterface13stopDiscoveryEv@Base 4:4.3.4
 _ZNK5Solid7Control18BluetoothInterface14isDiscoverableEv@Base 4:4.3.4
 _ZNK5Solid7Control18BluetoothInterface14releaseSessionEv@Base 4:4.3.4
 _ZNK5Solid7Control18BluetoothInterface14requestSessionEv@Base 4:4.3.4
 _ZNK5Solid7Control18BluetoothInterface14startDiscoveryEv@Base 4:4.3.4
 _ZNK5Solid7Control18BluetoothInterface15unregisterAgentERK7QString@Base 4:4.3.4
 _ZNK5Solid7Control18BluetoothInterface18createPairedDeviceERK7QStringS4_S4_@Base 4:4.3.4
 _ZNK5Solid7Control18BluetoothInterface19discoverableTimeoutEv@Base 4:4.3.4
 _ZNK5Solid7Control18BluetoothInterface20cancelDeviceCreationERK7QString@Base 4:4.3.4
 _ZNK5Solid7Control18BluetoothInterface27findBluetoothInputDeviceUBIERK7QString@Base 4:4.3.4
 _ZNK5Solid7Control18BluetoothInterface27getBluetoothRemoteDeviceUBIERK7QString@Base 4:4.3.4
 _ZNK5Solid7Control18BluetoothInterface28findBluetoothRemoteDeviceUBIERK7QString@Base 4:4.3.4
 _ZNK5Solid7Control18BluetoothInterface29findBluetoothRemoteDeviceAddrERK7QString@Base 4:4.3.4
 _ZNK5Solid7Control18BluetoothInterface3ubiEv@Base 4:4.3.4
 _ZNK5Solid7Control18BluetoothInterface4nameEv@Base 4:4.3.4
 _ZNK5Solid7Control18BluetoothInterface7addressEv@Base 4:4.3.4
 _ZNK5Solid7Control19GsmNetworkInterface10metaObjectEv@Base 4:4.3.4
 _ZNK5Solid7Control19GsmNetworkInterface4typeEv@Base 4:4.3.4
 _ZNK5Solid7Control19RemoteControlButton10remoteNameEv@Base 4:4.4.0
 _ZNK5Solid7Control19RemoteControlButton11descriptionEv@Base 4:4.4.0
 _ZNK5Solid7Control19RemoteControlButton13repeatCounterEv@Base 4:4.4.0
 _ZNK5Solid7Control19RemoteControlButton2idEv@Base 4:4.4.0
 _ZNK5Solid7Control19RemoteControlButton4nameEv@Base 4:4.4.0
 _ZNK5Solid7Control20BluetoothInputDevice10metaObjectEv@Base 4:4.3.4
 _ZNK5Solid7Control20BluetoothInputDevice13getPropertiesEv@Base 4:4.3.4
 _ZNK5Solid7Control20BluetoothInputDevice3ubiEv@Base 4:4.3.4
 _ZNK5Solid7Control20CdmaNetworkInterface10metaObjectEv@Base 4:4.3.4
 _ZNK5Solid7Control20CdmaNetworkInterface4typeEv@Base 4:4.3.4
 _ZNK5Solid7Control20RemoteControlManager8Notifier10metaObjectEv@Base 4:4.4.0
 _ZNK5Solid7Control21BluetoothPasskeyAgent10metaObjectEv@Base 4:4.3.4
 _ZNK5Solid7Control21BluetoothRemoteDevice10metaObjectEv@Base 4:4.3.4
 _ZNK5Solid7Control21BluetoothRemoteDevice3ubiEv@Base 4:4.3.4
 _ZNK5Solid7Control21BluetoothRemoteDeviceeqERKS1_@Base 4:4.3.4
 _ZNK5Solid7Control21WiredNetworkInterface10metaObjectEv@Base 4:4.3.4
 _ZNK5Solid7Control21WiredNetworkInterface15hardwareAddressEv@Base 4:4.3.4
 _ZNK5Solid7Control21WiredNetworkInterface4typeEv@Base 4:4.3.4
 _ZNK5Solid7Control21WiredNetworkInterface7bitRateEv@Base 4:4.3.4
 _ZNK5Solid7Control21WiredNetworkInterface7carrierEv@Base 4:4.3.4
 _ZNK5Solid7Control22SerialNetworkInterface10metaObjectEv@Base 4:4.3.4
 _ZNK5Solid7Control22SerialNetworkInterface4typeEv@Base 4:4.3.4
 _ZNK5Solid7Control24WirelessNetworkInterface10metaObjectEv@Base 4:4.3.4
 _ZNK5Solid7Control24WirelessNetworkInterface12accessPointsEv@Base 4:4.3.4
 _ZNK5Solid7Control24WirelessNetworkInterface15findAccessPointERK7QString@Base 4:4.3.4
 _ZNK5Solid7Control24WirelessNetworkInterface15hardwareAddressEv@Base 4:4.3.4
 _ZNK5Solid7Control24WirelessNetworkInterface17activeAccessPointEv@Base 4:4.3.4
 _ZNK5Solid7Control24WirelessNetworkInterface20wirelessCapabilitiesEv@Base 4:4.3.4
 _ZNK5Solid7Control24WirelessNetworkInterface25findRegisteredAccessPointERK7QString@Base 4:4.3.4
 _ZNK5Solid7Control24WirelessNetworkInterface4modeEv@Base 4:4.3.4
 _ZNK5Solid7Control24WirelessNetworkInterface4typeEv@Base 4:4.3.4
 _ZNK5Solid7Control24WirelessNetworkInterface7bitRateEv@Base 4:4.3.4
 _ZNK5Solid7Control27BluetoothAuthorizationAgent10metaObjectEv@Base 4:4.3.4
 _ZNK5Solid7Control9IPv4Route5routeEv@Base 4:4.3.4
 _ZNK5Solid7Control9IPv4Route6metricEv@Base 4:4.3.4
 _ZNK5Solid7Control9IPv4Route6prefixEv@Base 4:4.3.4
 _ZNK5Solid7Control9IPv4Route7isValidEv@Base 4:4.3.4
 _ZNK5Solid7Control9IPv4Route7nextHopEv@Base 4:4.3.4
 _ZTIN5Solid7Control11AccessPointE@Base 4:4.3.4
 _ZTIN5Solid7Control12PowerManager8NotifierE@Base 4:4.3.4
 _ZTIN5Solid7Control13RemoteControlE@Base 4:4.4.0
 _ZTIN5Solid7Control14NetworkManager8NotifierE@Base 4:4.3.4
 _ZTIN5Solid7Control16BluetoothManagerE@Base 4:4.3.4
 _ZTIN5Solid7Control16NetworkInterfaceE@Base 4:4.3.4
 _ZTIN5Solid7Control17BluetoothSecurityE@Base 4:4.3.4
 _ZTIN5Solid7Control18BluetoothInterfaceE@Base 4:4.3.4
 _ZTIN5Solid7Control19GsmNetworkInterfaceE@Base 4:4.3.4
 _ZTIN5Solid7Control20BluetoothInputDeviceE@Base 4:4.3.4
 _ZTIN5Solid7Control20CdmaNetworkInterfaceE@Base 4:4.3.4
 _ZTIN5Solid7Control20RemoteControlManager8NotifierE@Base 4:4.4.0
 _ZTIN5Solid7Control21BluetoothPasskeyAgentE@Base 4:4.3.4
 _ZTIN5Solid7Control21BluetoothRemoteDeviceE@Base 4:4.3.4
 _ZTIN5Solid7Control21WiredNetworkInterfaceE@Base 4:4.3.4
 _ZTIN5Solid7Control22SerialNetworkInterfaceE@Base 4:4.3.4
 _ZTIN5Solid7Control24WirelessNetworkInterfaceE@Base 4:4.3.4
 _ZTIN5Solid7Control27BluetoothAuthorizationAgentE@Base 4:4.3.4
 _ZTSN5Solid7Control11AccessPointE@Base 4:4.3.4
 _ZTSN5Solid7Control12PowerManager8NotifierE@Base 4:4.3.4
 _ZTSN5Solid7Control13RemoteControlE@Base 4:4.4.0
 _ZTSN5Solid7Control14NetworkManager8NotifierE@Base 4:4.3.4
 _ZTSN5Solid7Control16BluetoothManagerE@Base 4:4.3.4
 _ZTSN5Solid7Control16NetworkInterfaceE@Base 4:4.3.4
 _ZTSN5Solid7Control17BluetoothSecurityE@Base 4:4.3.4
 _ZTSN5Solid7Control18BluetoothInterfaceE@Base 4:4.3.4
 _ZTSN5Solid7Control19GsmNetworkInterfaceE@Base 4:4.3.4
 _ZTSN5Solid7Control20BluetoothInputDeviceE@Base 4:4.3.4
 _ZTSN5Solid7Control20CdmaNetworkInterfaceE@Base 4:4.3.4
 _ZTSN5Solid7Control20RemoteControlManager8NotifierE@Base 4:4.4.0
 _ZTSN5Solid7Control21BluetoothPasskeyAgentE@Base 4:4.3.4
 _ZTSN5Solid7Control21BluetoothRemoteDeviceE@Base 4:4.3.4
 _ZTSN5Solid7Control21WiredNetworkInterfaceE@Base 4:4.3.4
 _ZTSN5Solid7Control22SerialNetworkInterfaceE@Base 4:4.3.4
 _ZTSN5Solid7Control24WirelessNetworkInterfaceE@Base 4:4.3.4
 _ZTSN5Solid7Control27BluetoothAuthorizationAgentE@Base 4:4.3.4
 _ZTVN5Solid7Control11AccessPointE@Base 4:4.3.4
 _ZTVN5Solid7Control12PowerManager8NotifierE@Base 4:4.3.4
 _ZTVN5Solid7Control13RemoteControlE@Base 4:4.4.0
 _ZTVN5Solid7Control14NetworkManager8NotifierE@Base 4:4.3.4
 _ZTVN5Solid7Control16BluetoothManagerE@Base 4:4.3.4
 _ZTVN5Solid7Control16NetworkInterfaceE@Base 4:4.3.4
 _ZTVN5Solid7Control17BluetoothSecurityE@Base 4:4.3.4
 _ZTVN5Solid7Control18BluetoothInterfaceE@Base 4:4.3.4
 _ZTVN5Solid7Control19GsmNetworkInterfaceE@Base 4:4.3.4
 _ZTVN5Solid7Control20BluetoothInputDeviceE@Base 4:4.3.4
 _ZTVN5Solid7Control20CdmaNetworkInterfaceE@Base 4:4.3.4
 _ZTVN5Solid7Control20RemoteControlManager8NotifierE@Base 4:4.4.0
 _ZTVN5Solid7Control21BluetoothPasskeyAgentE@Base 4:4.3.4
 _ZTVN5Solid7Control21BluetoothRemoteDeviceE@Base 4:4.3.4
 _ZTVN5Solid7Control21WiredNetworkInterfaceE@Base 4:4.3.4
 _ZTVN5Solid7Control22SerialNetworkInterfaceE@Base 4:4.3.4
 _ZTVN5Solid7Control24WirelessNetworkInterfaceE@Base 4:4.3.4
 _ZTVN5Solid7Control27BluetoothAuthorizationAgentE@Base 4:4.3.4
