# SymbolsHelper-Confirmed: 4:4.6.0 amd64
libtaskmanager.so.4 libtaskmanager4b #MINVER#
* Build-Depends-Package: kdebase-workspace-dev
 _ZN11TaskManager11TaskManager10isOnScreenEim@Base 4:4.3.4
 _ZN11TaskManager11TaskManager11killStartupE10KSharedPtrINS_7StartupEE@Base 4:4.3.4
 _ZN11TaskManager11TaskManager11killStartupERK14KStartupInfoId@Base 4:4.3.4
 _ZN11TaskManager11TaskManager11qt_metacallEN11QMetaObject4CallEiPPv@Base 4:4.3.4
 _ZN11TaskManager11TaskManager11qt_metacastEPKc@Base 4:4.3.4
 _ZN11TaskManager11TaskManager11taskChangedE6QFlagsINS_10TaskChangeEE@Base 4:4.3.4
 _ZN11TaskManager11TaskManager11taskRemovedE10KSharedPtrINS_4TaskEE@Base 4:4.3.4
 _ZN11TaskManager11TaskManager11windowAddedEm@Base 4:4.3.4
 _ZN11TaskManager11TaskManager12startupAddedE10KSharedPtrINS_7StartupEE@Base 4:4.3.4
 _ZN11TaskManager11TaskManager13gotNewStartupERK14KStartupInfoIdRK16KStartupInfoData@Base 4:4.3.4
 _ZN11TaskManager11TaskManager13windowChangedE10KSharedPtrINS_4TaskEE6QFlagsINS_10TaskChangeEE@Base 4:4.3.4
 _ZN11TaskManager11TaskManager13windowChangedEmPKm@Base 4:4.5.0
 _ZN11TaskManager11TaskManager13windowRemovedEm@Base 4:4.3.4
 _ZN11TaskManager11TaskManager14desktopChangedEi@Base 4:4.3.4
 _ZN11TaskManager11TaskManager14startupRemovedE10KSharedPtrINS_7StartupEE@Base 4:4.3.4
 _ZN11TaskManager11TaskManager15activityChangedERK7QString@Base 4:4.5.90
 _ZN11TaskManager11TaskManager16configureStartupEv@Base 4:4.3.4
 _ZN11TaskManager11TaskManager16gotStartupChangeERK14KStartupInfoIdRK16KStartupInfoData@Base 4:4.3.4
 _ZN11TaskManager11TaskManager16setTrackGeometryEbRK5QUuid@Base 4:4.3.4
 _ZN11TaskManager11TaskManager16staticMetaObjectE@Base 4:4.3.4
 _ZN11TaskManager11TaskManager19activeWindowChangedEm@Base 4:4.3.4
 _ZN11TaskManager11TaskManager21currentDesktopChangedEi@Base 4:4.3.4
 _ZN11TaskManager11TaskManager22currentActivityChangedERK7QString@Base 4:4.5.90
 _ZN11TaskManager11TaskManager4selfEv@Base 4:4.3.4
 _ZN11TaskManager11TaskManager8findTaskEiRK6QPoint@Base 4:4.3.4
 _ZN11TaskManager11TaskManager8findTaskEm@Base 4:4.3.4
 _ZN11TaskManager11TaskManager9taskAddedE10KSharedPtrINS_4TaskEE@Base 4:4.3.4
 _ZN11TaskManager11TaskManagerC1Ev@Base 4:4.3.4
 _ZN11TaskManager11TaskManagerC2Ev@Base 4:4.3.4
 _ZN11TaskManager11TaskManagerD0Ev@Base 4:4.3.4
 _ZN11TaskManager11TaskManagerD1Ev@Base 4:4.3.4
 _ZN11TaskManager11TaskManagerD2Ev@Base 4:4.3.4
 _ZN11TaskManager12AdvancedMenu11qt_metacallEN11QMetaObject4CallEiPPv@Base 4:4.3.4
 _ZN11TaskManager12AdvancedMenu11qt_metacastEPKc@Base 4:4.3.4
 _ZN11TaskManager12AdvancedMenu16staticMetaObjectE@Base 4:4.3.4
#MISSING: 4:4.5.90# _ZN11TaskManager12AdvancedMenuC1EP7QWidgetPNS_21AbstractGroupableItemE@Base 4:4.3.4
 _ZN11TaskManager12AdvancedMenuC1EP7QWidgetPNS_21AbstractGroupableItemEPNS_12GroupManagerE@Base 4:4.5.90
#MISSING: 4:4.5.90# _ZN11TaskManager12AdvancedMenuC2EP7QWidgetPNS_21AbstractGroupableItemE@Base 4:4.3.4
 _ZN11TaskManager12AdvancedMenuC2EP7QWidgetPNS_21AbstractGroupableItemEPNS_12GroupManagerE@Base 4:4.5.90
 _ZN11TaskManager12DesktopsMenu11qt_metacallEN11QMetaObject4CallEiPPv@Base 4:4.3.4
 _ZN11TaskManager12DesktopsMenu11qt_metacastEPKc@Base 4:4.3.4
 _ZN11TaskManager12DesktopsMenu16staticMetaObjectE@Base 4:4.3.4
 _ZN11TaskManager12DesktopsMenuC1EP7QWidgetPNS_21AbstractGroupableItemE@Base 4:4.3.4
 _ZN11TaskManager12DesktopsMenuC2EP7QWidgetPNS_21AbstractGroupableItemE@Base 4:4.3.4
 _ZN11TaskManager12GroupManager11addLauncherERK4KUrl5QIcon7QStringS5_@Base 4:4.6.0
#MISSING: 4:4.6.0# _ZN11TaskManager12GroupManager11addLauncherERK4KUrl5QIcon7QStringS5_b@Base 4:4.5.90
 _ZN11TaskManager12GroupManager11qt_metacallEN11QMetaObject4CallEiPPv@Base 4:4.3.4
 _ZN11TaskManager12GroupManager11qt_metacastEPKc@Base 4:4.3.4
#MISSING: 4:4.6.0# _ZN11TaskManager12GroupManager12findLauncherERK7QString@Base 4:4.5.90
 _ZN11TaskManager12GroupManager12setFullLimitEi@Base 4:4.3.4
 _ZN11TaskManager12GroupManager13launcherAddedEPNS_12LauncherItemE@Base 4:4.5.90
#MISSING: 4:4.6.0# _ZN11TaskManager12GroupManager14removeLauncherEPNS_12LauncherItemEb@Base 4:4.5.90
 _ZN11TaskManager12GroupManager14removeLauncherERK4KUrl@Base 4:4.6.0
#MISSING: 4:4.6.0# _ZN11TaskManager12GroupManager14updateLauncherEPNS_21AbstractGroupableItemE@Base 4:4.5.90
 _ZN11TaskManager12GroupManager15launcherRemovedEPNS_12LauncherItemE@Base 4:4.5.90
 _ZN11TaskManager12GroupManager16staticMetaObjectE@Base 4:4.3.4
 _ZN11TaskManager12GroupManager18setSortingStrategyENS0_19TaskSortingStrategyE@Base 4:4.3.4
 _ZN11TaskManager12GroupManager19setGroupingStrategyENS0_20TaskGroupingStrategyE@Base 4:4.3.4
 _ZN11TaskManager12GroupManager20manualSortingRequestEPNS_21AbstractGroupableItemEi@Base 4:4.3.4
 _ZN11TaskManager12GroupManager20setOnlyGroupWhenFullEb@Base 4:4.3.4
 _ZN11TaskManager12GroupManager20setShowOnlyMinimizedEb@Base 4:4.3.4
 _ZN11TaskManager12GroupManager21manualGroupingRequestE5QListIPNS_21AbstractGroupableItemEE@Base 4:4.3.4
 _ZN11TaskManager12GroupManager21manualGroupingRequestEPNS_21AbstractGroupableItemEPNS_9TaskGroupE@Base 4:4.3.4
 _ZN11TaskManager12GroupManager24setShowOnlyCurrentScreenEb@Base 4:4.3.4
 _ZN11TaskManager12GroupManager25setShowOnlyCurrentDesktopEb@Base 4:4.3.4
 _ZN11TaskManager12GroupManager26setShowOnlyCurrentActivityEb@Base 4:4.5.90
 _ZN11TaskManager12GroupManager6reloadEv@Base 4:4.3.4
 _ZN11TaskManager12GroupManager9reconnectEv@Base 4:4.3.4
 _ZN11TaskManager12GroupManager9setScreenEi@Base 4:4.3.4
 _ZN11TaskManager12GroupManagerC1EP7QObject@Base 4:4.3.4
 _ZN11TaskManager12GroupManagerC2EP7QObject@Base 4:4.3.4
 _ZN11TaskManager12GroupManagerD0Ev@Base 4:4.3.4
 _ZN11TaskManager12GroupManagerD1Ev@Base 4:4.3.4
 _ZN11TaskManager12GroupManagerD2Ev@Base 4:4.3.4
 _ZN11TaskManager12LauncherItem11qt_metacallEN11QMetaObject4CallEiPPv@Base 4:4.5.90
 _ZN11TaskManager12LauncherItem11qt_metacastEPKc@Base 4:4.5.90
 _ZN11TaskManager12LauncherItem12setMaximizedEb@Base 4:4.5.90
 _ZN11TaskManager12LauncherItem12setMinimizedEb@Base 4:4.5.90
 _ZN11TaskManager12LauncherItem12toggleShadedEv@Base 4:4.5.90
 _ZN11TaskManager12LauncherItem13setFullScreenEb@Base 4:4.5.90
 _ZN11TaskManager12LauncherItem14setAlwaysOnTopEb@Base 4:4.5.90
 _ZN11TaskManager12LauncherItem14setGenericNameERK7QString@Base 4:4.5.90
 _ZN11TaskManager12LauncherItem15toggleMaximizedEv@Base 4:4.5.90
 _ZN11TaskManager12LauncherItem15toggleMinimizedEv@Base 4:4.5.90
 _ZN11TaskManager12LauncherItem16staticMetaObjectE@Base 4:4.5.90
 _ZN11TaskManager12LauncherItem16toggleFullScreenEv@Base 4:4.5.90
 _ZN11TaskManager12LauncherItem17toggleAlwaysOnTopEv@Base 4:4.5.90
 _ZN11TaskManager12LauncherItem18setKeptBelowOthersEb@Base 4:4.5.90
 _ZN11TaskManager12LauncherItem21toggleKeptBelowOthersEv@Base 4:4.5.90
 _ZN11TaskManager12LauncherItem22associateItemIfMatchesEPNS_21AbstractGroupableItemE@Base 4:4.6.0
 _ZN11TaskManager12LauncherItem22removeItemIfAssociatedEPNS_21AbstractGroupableItemE@Base 4:4.6.0
 _ZN11TaskManager12LauncherItem4showEb@Base 4:4.6.0
 _ZN11TaskManager12LauncherItem5closeEv@Base 4:4.5.90
 _ZN11TaskManager12LauncherItem6launchEv@Base 4:4.5.90
 _ZN11TaskManager12LauncherItem6setUrlERK4KUrl@Base 4:4.5.90
 _ZN11TaskManager12LauncherItem7setIconERK5QIcon@Base 4:4.5.90
 _ZN11TaskManager12LauncherItem7setNameERK7QString@Base 4:4.5.90
 _ZN11TaskManager12LauncherItem9setShadedEb@Base 4:4.5.90
 _ZN11TaskManager12LauncherItem9toDesktopEi@Base 4:4.5.90
 _ZN11TaskManager12LauncherItemC1EP7QObjectRK4KUrl@Base 4:4.5.90
 _ZN11TaskManager12LauncherItemC2EP7QObjectRK4KUrl@Base 4:4.5.90
 _ZN11TaskManager12LauncherItemD0Ev@Base 4:4.5.90
 _ZN11TaskManager12LauncherItemD1Ev@Base 4:4.5.90
 _ZN11TaskManager12LauncherItemD2Ev@Base 4:4.5.90
 _ZN11TaskManager14GroupPopupMenu11qt_metacallEN11QMetaObject4CallEiPPv@Base 4:4.3.4
 _ZN11TaskManager14GroupPopupMenu11qt_metacastEPKc@Base 4:4.3.4
 _ZN11TaskManager14GroupPopupMenu16staticMetaObjectE@Base 4:4.3.4
 _ZN11TaskManager14GroupPopupMenuC1EP7QWidgetPNS_9TaskGroupEPNS_12GroupManagerE@Base 4:4.3.4
 _ZN11TaskManager14GroupPopupMenuC2EP7QWidgetPNS_9TaskGroupEPNS_12GroupManagerE@Base 4:4.3.4
 _ZN11TaskManager20GroupingStrategyMenu11qt_metacallEN11QMetaObject4CallEiPPv@Base 4:4.3.4
 _ZN11TaskManager20GroupingStrategyMenu11qt_metacastEPKc@Base 4:4.3.4
 _ZN11TaskManager20GroupingStrategyMenu16staticMetaObjectE@Base 4:4.3.4
 _ZN11TaskManager20GroupingStrategyMenuC1EP7QWidgetPNS_21AbstractGroupableItemEPNS_12GroupManagerE@Base 4:4.3.4
 _ZN11TaskManager20GroupingStrategyMenuC2EP7QWidgetPNS_21AbstractGroupableItemEPNS_12GroupManagerE@Base 4:4.3.4
 _ZN11TaskManager21AbstractGroupableItem11qt_metacallEN11QMetaObject4CallEiPPv@Base 4:4.3.4
 _ZN11TaskManager21AbstractGroupableItem11qt_metacastEPKc@Base 4:4.3.4
 _ZN11TaskManager21AbstractGroupableItem14setParentGroupEPNS_9TaskGroupE@Base 4:4.3.4
 _ZN11TaskManager21AbstractGroupableItem16staticMetaObjectE@Base 4:4.3.4
 _ZN11TaskManager21AbstractGroupableItem7Private8m_nextIdE@Base 4:4.5.0
 _ZN11TaskManager21AbstractGroupableItem7changedE6QFlagsINS_10TaskChangeEE@Base 4:4.3.4
 _ZN11TaskManager21AbstractGroupableItem9destroyedEPS0_@Base 4:4.3.4
 _ZN11TaskManager21AbstractGroupableItemC1EP7QObject@Base 4:4.3.4
 _ZN11TaskManager21AbstractGroupableItemC2EP7QObject@Base 4:4.3.4
 _ZN11TaskManager21AbstractGroupableItemD0Ev@Base 4:4.3.4
 _ZN11TaskManager21AbstractGroupableItemD1Ev@Base 4:4.3.4
 _ZN11TaskManager21AbstractGroupableItemD2Ev@Base 4:4.3.4
 _ZN11TaskManager23AbstractSortingStrategy10handleItemEPNS_21AbstractGroupableItemE@Base 4:4.3.4
 _ZN11TaskManager23AbstractSortingStrategy11handleGroupEPNS_9TaskGroupE@Base 4:4.3.4
 _ZN11TaskManager23AbstractSortingStrategy11qt_metacallEN11QMetaObject4CallEiPPv@Base 4:4.3.4
 _ZN11TaskManager23AbstractSortingStrategy11qt_metacastEPKc@Base 4:4.3.4
 _ZN11TaskManager23AbstractSortingStrategy11removeGroupEv@Base 4:4.3.4
 _ZN11TaskManager23AbstractSortingStrategy16staticMetaObjectE@Base 4:4.3.4
 _ZN11TaskManager23AbstractSortingStrategy20manualSortingRequestEPNS_21AbstractGroupableItemEi@Base 4:4.4.0
 _ZN11TaskManager23AbstractSortingStrategy5checkEPNS_21AbstractGroupableItemE@Base 4:4.3.4
 _ZN11TaskManager23AbstractSortingStrategy7setTypeENS_12GroupManager19TaskSortingStrategyE@Base 4:4.3.4
 _ZN11TaskManager23AbstractSortingStrategy8moveItemEPNS_21AbstractGroupableItemEi@Base 4:4.3.4
 _ZN11TaskManager23AbstractSortingStrategy9sortItemsER5QListIPNS_21AbstractGroupableItemEE@Base 4:4.4.0
 _ZN11TaskManager23AbstractSortingStrategyC1EP7QObject@Base 4:4.3.4
 _ZN11TaskManager23AbstractSortingStrategyC2EP7QObject@Base 4:4.3.4
 _ZN11TaskManager23AbstractSortingStrategyD0Ev@Base 4:4.3.4
 _ZN11TaskManager23AbstractSortingStrategyD1Ev@Base 4:4.3.4
 _ZN11TaskManager23AbstractSortingStrategyD2Ev@Base 4:4.3.4
 _ZN11TaskManager24AbstractGroupingStrategy10checkGroupEv@Base 4:4.3.4
 _ZN11TaskManager24AbstractGroupingStrategy10closeGroupEPNS_9TaskGroupE@Base 4:4.3.4
 _ZN11TaskManager24AbstractGroupingStrategy11createGroupE5QListIPNS_21AbstractGroupableItemEE@Base 4:4.3.4
 _ZN11TaskManager24AbstractGroupingStrategy11qt_metacallEN11QMetaObject4CallEiPPv@Base 4:4.3.4
 _ZN11TaskManager24AbstractGroupingStrategy11qt_metacastEPKc@Base 4:4.3.4
 _ZN11TaskManager24AbstractGroupingStrategy12groupRemovedEPNS_9TaskGroupE@Base 4:4.3.4
 _ZN11TaskManager24AbstractGroupingStrategy14desktopChangedEi@Base 4:4.3.4
 _ZN11TaskManager24AbstractGroupingStrategy15iconSuggestionsEPNS_9TaskGroupE@Base 4:4.3.4
 _ZN11TaskManager24AbstractGroupingStrategy15nameSuggestionsEPNS_9TaskGroupE@Base 4:4.3.4
 _ZN11TaskManager24AbstractGroupingStrategy15strategyActionsEP7QObjectPNS_21AbstractGroupableItemE@Base 4:4.3.4
 _ZN11TaskManager24AbstractGroupingStrategy16colorSuggestionsEPNS_9TaskGroupE@Base 4:4.3.4
 _ZN11TaskManager24AbstractGroupingStrategy16staticMetaObjectE@Base 4:4.3.4
 _ZN11TaskManager24AbstractGroupingStrategy21manualGroupingRequestE5QListIPNS_21AbstractGroupableItemEE@Base 4:4.4.0
 _ZN11TaskManager24AbstractGroupingStrategy21manualGroupingRequestEPNS_21AbstractGroupableItemEPNS_9TaskGroupE@Base 4:4.4.0
 _ZN11TaskManager24AbstractGroupingStrategy7destroyEv@Base 4:4.3.4
 _ZN11TaskManager24AbstractGroupingStrategy7setIconERK5QIconPNS_9TaskGroupE@Base 4:4.3.4
 _ZN11TaskManager24AbstractGroupingStrategy7setNameERK7QStringPNS_9TaskGroupE@Base 4:4.3.4
 _ZN11TaskManager24AbstractGroupingStrategy7setTypeENS_12GroupManager20TaskGroupingStrategyE@Base 4:4.3.4
 _ZN11TaskManager24AbstractGroupingStrategy8setColorERK6QColorPNS_9TaskGroupE@Base 4:4.3.4
 _ZN11TaskManager24AbstractGroupingStrategyC1EPNS_12GroupManagerE@Base 4:4.3.4
 _ZN11TaskManager24AbstractGroupingStrategyC2EPNS_12GroupManagerE@Base 4:4.3.4
 _ZN11TaskManager24AbstractGroupingStrategyD0Ev@Base 4:4.3.4
 _ZN11TaskManager24AbstractGroupingStrategyD1Ev@Base 4:4.3.4
 _ZN11TaskManager24AbstractGroupingStrategyD2Ev@Base 4:4.3.4
 _ZN11TaskManager4Task10timerEventEP11QTimerEvent@Base 4:4.3.4
 _ZN11TaskManager4Task11deactivatedEv@Base 4:4.3.4
 _ZN11TaskManager4Task11qt_metacallEN11QMetaObject4CallEiPPv@Base 4:4.3.4
 _ZN11TaskManager4Task11qt_metacastEPKc@Base 4:4.3.4
 _ZN11TaskManager4Task11refreshIconEv@Base 4:4.3.4
 _ZN11TaskManager4Task12addTransientEmRK10NETWinInfo@Base 4:4.3.4
 _ZN11TaskManager4Task12setIconifiedEb@Base 4:4.3.4
 _ZN11TaskManager4Task12setMaximizedEb@Base 4:4.3.4
 _ZN11TaskManager4Task12toggleShadedEv@Base 4:4.3.4
 _ZN11TaskManager4Task13groupMimetypeEv@Base 4:4.3.4
 _ZN11TaskManager4Task13setFullScreenEb@Base 4:4.3.4
 _ZN11TaskManager4Task14idFromMimeDataEPK9QMimeDataPb@Base 4:4.3.4
 _ZN11TaskManager4Task14setAlwaysOnTopEb@Base 4:4.3.4
 _ZN11TaskManager4Task15clearPixmapDataEv@Base 4:4.5.0
 _ZN11TaskManager4Task15idsFromMimeDataEPK9QMimeDataPb@Base 4:4.3.4
 _ZN11TaskManager4Task15removeTransientEm@Base 4:4.3.4
 _ZN11TaskManager4Task15toggleIconifiedEv@Base 4:4.3.4
 _ZN11TaskManager4Task15toggleMaximizedEv@Base 4:4.3.4
 _ZN11TaskManager4Task16WindowPropertiesC1Ejj@Base 4:4.5.0
 _ZN11TaskManager4Task16WindowPropertiesC2Ejj@Base 4:4.5.0
 _ZN11TaskManager4Task16staticMetaObjectE@Base 4:4.3.4
 _ZN11TaskManager4Task16toCurrentDesktopEv@Base 4:4.3.4
 _ZN11TaskManager4Task16toggleFullScreenEv@Base 4:4.3.4
 _ZN11TaskManager4Task17refreshActivitiesEv@Base 4:4.5.90
 _ZN11TaskManager4Task17toggleAlwaysOnTopEv@Base 4:4.3.4
 _ZN11TaskManager4Task18setKeptBelowOthersEb@Base 4:4.3.4
 _ZN11TaskManager4Task19publishIconGeometryE5QRect@Base 4:4.3.4
 _ZN11TaskManager4Task21toggleKeptBelowOthersEv@Base 4:4.3.4
 _ZN11TaskManager4Task22activateRaiseOrIconifyEv@Base 4:4.3.4
 _ZN11TaskManager4Task27updateDemandsAttentionStateEm@Base 4:4.3.4
 _ZN11TaskManager4Task4iconEiib@Base 4:4.3.4
 _ZN11TaskManager4Task4iconEv@Base 4:4.3.4
 _ZN11TaskManager4Task4moveEv@Base 4:4.3.4
 _ZN11TaskManager4Task5closeEv@Base 4:4.3.4
 _ZN11TaskManager4Task5lowerEv@Base 4:4.3.4
 _ZN11TaskManager4Task5raiseEv@Base 4:4.3.4
 _ZN11TaskManager4Task6resizeEv@Base 4:4.3.4
 _ZN11TaskManager4Task7changedE6QFlagsINS_10TaskChangeEE@Base 4:4.3.4
 _ZN11TaskManager4Task7idMatchERK7QStringS3_@Base 4:4.3.4
 _ZN11TaskManager4Task7refreshENS0_16WindowPropertiesE@Base 4:4.5.0
 _ZN11TaskManager4Task7restoreEv@Base 4:4.3.4
 _ZN11TaskManager4Task8activateEv@Base 4:4.3.4
 _ZN11TaskManager4Task8bestIconEiRb@Base 4:4.3.4
 _ZN11TaskManager4Task8mimetypeEv@Base 4:4.3.4
 _ZN11TaskManager4Task9activatedEv@Base 4:4.3.4
 _ZN11TaskManager4Task9setActiveEb@Base 4:4.3.4
 _ZN11TaskManager4Task9setShadedEb@Base 4:4.3.4
 _ZN11TaskManager4Task9toDesktopEi@Base 4:4.3.4
 _ZN11TaskManager4TaskC1EmP7QObjectPKc@Base 4:4.3.4
 _ZN11TaskManager4TaskC2EmP7QObjectPKc@Base 4:4.3.4
 _ZN11TaskManager4TaskD0Ev@Base 4:4.3.4
 _ZN11TaskManager4TaskD1Ev@Base 4:4.3.4
 _ZN11TaskManager4TaskD2Ev@Base 4:4.3.4
 _ZN11TaskManager7Startup11qt_metacallEN11QMetaObject4CallEiPPv@Base 4:4.3.4
 _ZN11TaskManager7Startup11qt_metacastEPKc@Base 4:4.3.4
 _ZN11TaskManager7Startup14addWindowMatchEm@Base 4:4.3.4
 _ZN11TaskManager7Startup15clearPixmapDataEv@Base 4:4.5.0
 _ZN11TaskManager7Startup16staticMetaObjectE@Base 4:4.3.4
 _ZN11TaskManager7Startup6updateERK16KStartupInfoData@Base 4:4.3.4
 _ZN11TaskManager7Startup7changedE6QFlagsINS_10TaskChangeEE@Base 4:4.3.4
 _ZN11TaskManager7StartupC1ERK14KStartupInfoIdRK16KStartupInfoDataP7QObjectPKc@Base 4:4.3.4
 _ZN11TaskManager7StartupC2ERK14KStartupInfoIdRK16KStartupInfoDataP7QObjectPKc@Base 4:4.3.4
 _ZN11TaskManager7StartupD0Ev@Base 4:4.3.4
 _ZN11TaskManager7StartupD1Ev@Base 4:4.3.4
 _ZN11TaskManager7StartupD2Ev@Base 4:4.3.4
 _ZN11TaskManager8TaskItem11qt_metacallEN11QMetaObject4CallEiPPv@Base 4:4.3.4
 _ZN11TaskManager8TaskItem11qt_metacastEPKc@Base 4:4.3.4
 _ZN11TaskManager8TaskItem12setMaximizedEb@Base 4:4.3.4
 _ZN11TaskManager8TaskItem12setMinimizedEb@Base 4:4.3.4
 _ZN11TaskManager8TaskItem12toggleShadedEv@Base 4:4.3.4
 _ZN11TaskManager8TaskItem13setFullScreenEb@Base 4:4.3.4
 _ZN11TaskManager8TaskItem13taskDestroyedEv@Base 4:4.3.4
 _ZN11TaskManager8TaskItem14gotTaskPointerEv@Base 4:4.3.4
 _ZN11TaskManager8TaskItem14setAlwaysOnTopEb@Base 4:4.3.4
 _ZN11TaskManager8TaskItem14setTaskPointerE10KSharedPtrINS_4TaskEE@Base 4:4.3.4
 _ZN11TaskManager8TaskItem15toggleMaximizedEv@Base 4:4.3.4
 _ZN11TaskManager8TaskItem15toggleMinimizedEv@Base 4:4.3.4
 _ZN11TaskManager8TaskItem16staticMetaObjectE@Base 4:4.3.4
 _ZN11TaskManager8TaskItem16toggleFullScreenEv@Base 4:4.3.4
 _ZN11TaskManager8TaskItem17toggleAlwaysOnTopEv@Base 4:4.3.4
 _ZN11TaskManager8TaskItem18setKeptBelowOthersEb@Base 4:4.3.4
 _ZN11TaskManager8TaskItem21toggleKeptBelowOthersEv@Base 4:4.3.4
 _ZN11TaskManager8TaskItem5closeEv@Base 4:4.3.4
 _ZN11TaskManager8TaskItem9setShadedEb@Base 4:4.3.4
 _ZN11TaskManager8TaskItem9toDesktopEi@Base 4:4.3.4
 _ZN11TaskManager8TaskItemC1EP7QObject10KSharedPtrINS_4TaskEE@Base 4:4.3.4
 _ZN11TaskManager8TaskItemC1EP7QObject10KSharedPtrINS_7StartupEE@Base 4:4.3.4
 _ZN11TaskManager8TaskItemC2EP7QObject10KSharedPtrINS_4TaskEE@Base 4:4.3.4
 _ZN11TaskManager8TaskItemC2EP7QObject10KSharedPtrINS_7StartupEE@Base 4:4.3.4
 _ZN11TaskManager8TaskItemD0Ev@Base 4:4.3.4
 _ZN11TaskManager8TaskItemD1Ev@Base 4:4.3.4
 _ZN11TaskManager8TaskItemD2Ev@Base 4:4.3.4
 _ZN11TaskManager9BasicMenu11qt_metacallEN11QMetaObject4CallEiPPv@Base 4:4.3.4
 _ZN11TaskManager9BasicMenu11qt_metacastEPKc@Base 4:4.3.4
 _ZN11TaskManager9BasicMenu16staticMetaObjectE@Base 4:4.3.4
 _ZN11TaskManager9BasicMenuC1EP7QWidgetPNS_12LauncherItemEPNS_12GroupManagerE5QListIP7QActionE@Base 4:4.5.90
 _ZN11TaskManager9BasicMenuC1EP7QWidgetPNS_8TaskItemEPNS_12GroupManagerE5QListIP7QActionE@Base 4:4.3.4
 _ZN11TaskManager9BasicMenuC1EP7QWidgetPNS_9TaskGroupEPNS_12GroupManagerE5QListIP7QActionE@Base 4:4.3.4
 _ZN11TaskManager9BasicMenuC2EP7QWidgetPNS_12LauncherItemEPNS_12GroupManagerE5QListIP7QActionE@Base 4:4.5.90
 _ZN11TaskManager9BasicMenuC2EP7QWidgetPNS_8TaskItemEPNS_12GroupManagerE5QListIP7QActionE@Base 4:4.3.4
 _ZN11TaskManager9BasicMenuC2EP7QWidgetPNS_9TaskGroupEPNS_12GroupManagerE5QListIP7QActionE@Base 4:4.3.4
#MISSING: 4:4.5.90# _ZN11TaskManager9TaskGroup11itemChangedE6QFlagsINS_10TaskChangeEE@Base 4:4.3.4
 _ZN11TaskManager9TaskGroup11itemRemovedEPNS_21AbstractGroupableItemE@Base 4:4.3.4
 _ZN11TaskManager9TaskGroup11qt_metacallEN11QMetaObject4CallEiPPv@Base 4:4.3.4
 _ZN11TaskManager9TaskGroup11qt_metacastEPKc@Base 4:4.3.4
 _ZN11TaskManager9TaskGroup12setMaximizedEb@Base 4:4.3.4
 _ZN11TaskManager9TaskGroup12setMinimizedEb@Base 4:4.3.4
 _ZN11TaskManager9TaskGroup12toggleShadedEv@Base 4:4.3.4
#MISSING: 4:4.5.90# _ZN11TaskManager9TaskGroup13itemDestroyedEPNS_21AbstractGroupableItemE@Base 4:4.3.4
 _ZN11TaskManager9TaskGroup13setFullScreenEb@Base 4:4.3.4
 _ZN11TaskManager9TaskGroup14getMemberByWIdEm@Base 4:4.4.0
 _ZN11TaskManager9TaskGroup14movedToDesktopEi@Base 4:4.3.4
 _ZN11TaskManager9TaskGroup14setAlwaysOnTopEb@Base 4:4.3.4
 _ZN11TaskManager9TaskGroup15toggleMaximizedEv@Base 4:4.3.4
 _ZN11TaskManager9TaskGroup15toggleMinimizedEv@Base 4:4.3.4
 _ZN11TaskManager9TaskGroup16groupEditRequestEv@Base 4:4.3.4
 _ZN11TaskManager9TaskGroup16staticMetaObjectE@Base 4:4.3.4
 _ZN11TaskManager9TaskGroup16toggleFullScreenEv@Base 4:4.3.4
 _ZN11TaskManager9TaskGroup17toggleAlwaysOnTopEv@Base 4:4.3.4
 _ZN11TaskManager9TaskGroup18setKeptBelowOthersEb@Base 4:4.3.4
 _ZN11TaskManager9TaskGroup19itemPositionChangedEPNS_21AbstractGroupableItemE@Base 4:4.3.4
 _ZN11TaskManager9TaskGroup21toggleKeptBelowOthersEv@Base 4:4.3.4
 _ZN11TaskManager9TaskGroup25setPersistentWithLauncherEb@Base 4:4.5.90
 _ZN11TaskManager9TaskGroup3addEPNS_21AbstractGroupableItemE@Base 4:4.3.4
 _ZN11TaskManager9TaskGroup5closeEv@Base 4:4.3.4
 _ZN11TaskManager9TaskGroup6removeEPNS_21AbstractGroupableItemE@Base 4:4.3.4
 _ZN11TaskManager9TaskGroup7Private11itemChangedE6QFlagsINS_10TaskChangeEE@Base 4:4.5.90
 _ZN11TaskManager9TaskGroup7Private13itemDestroyedEPNS_21AbstractGroupableItemE@Base 4:4.5.90
 _ZN11TaskManager9TaskGroup7Private14signalRemovalsEv@Base 4:4.5.90
 _ZN11TaskManager9TaskGroup7setIconERK5QIcon@Base 4:4.3.4
 _ZN11TaskManager9TaskGroup7setNameERK7QString@Base 4:4.3.4
 _ZN11TaskManager9TaskGroup8moveItemEii@Base 4:4.3.4
 _ZN11TaskManager9TaskGroup8setColorERK6QColor@Base 4:4.3.4
 _ZN11TaskManager9TaskGroup9checkIconEPS0_@Base 4:4.3.4
 _ZN11TaskManager9TaskGroup9itemAddedEPNS_21AbstractGroupableItemE@Base 4:4.3.4
#MISSING: 4:4.5.90# _ZN11TaskManager9TaskGroup9setPinnedEb@Base 4:4.3.4
 _ZN11TaskManager9TaskGroup9setShadedEb@Base 4:4.3.4
 _ZN11TaskManager9TaskGroup9toDesktopEi@Base 4:4.3.4
 _ZN11TaskManager9TaskGroup9totalSizeEv@Base 4:4.4.0
 _ZN11TaskManager9TaskGroupC1EPNS_12GroupManagerE@Base 4:4.3.4
 _ZN11TaskManager9TaskGroupC1EPNS_12GroupManagerERK7QStringRK6QColor@Base 4:4.3.4
 _ZN11TaskManager9TaskGroupC2EPNS_12GroupManagerE@Base 4:4.3.4
 _ZN11TaskManager9TaskGroupC2EPNS_12GroupManagerERK7QStringRK6QColor@Base 4:4.3.4
 _ZN11TaskManager9TaskGroupD0Ev@Base 4:4.3.4
 _ZN11TaskManager9TaskGroupD1Ev@Base 4:4.3.4
 _ZN11TaskManager9TaskGroupD2Ev@Base 4:4.3.4
 _ZNK11TaskManager11TaskManager10metaObjectEv@Base 4:4.3.4
 _ZNK11TaskManager11TaskManager11desktopNameEi@Base 4:4.3.4
 _ZNK11TaskManager11TaskManager13trackGeometryEv@Base 4:4.3.4
 _ZNK11TaskManager11TaskManager14currentDesktopEv@Base 4:4.3.4
 _ZNK11TaskManager11TaskManager15currentActivityEv@Base 4:4.5.90
 _ZNK11TaskManager11TaskManager16numberOfDesktopsEv@Base 4:4.3.4
 _ZNK11TaskManager11TaskManager5tasksEv@Base 4:4.3.4
 _ZNK11TaskManager11TaskManager7isOnTopEPKNS_4TaskE@Base 4:4.3.4
 _ZNK11TaskManager11TaskManager8startupsEv@Base 4:4.3.4
 _ZNK11TaskManager12AdvancedMenu10metaObjectEv@Base 4:4.3.4
 _ZNK11TaskManager12DesktopsMenu10metaObjectEv@Base 4:4.3.4
 _ZNK11TaskManager12GroupManager10metaObjectEv@Base 4:4.3.4
 _ZNK11TaskManager12GroupManager10taskSorterEv@Base 4:4.3.4
 _ZNK11TaskManager12GroupManager11taskGrouperEv@Base 4:4.3.4
 _ZNK11TaskManager12GroupManager14launcherExistsERK4KUrl@Base 4:4.6.0
 _ZNK11TaskManager12GroupManager15sortingStrategyEv@Base 4:4.3.4
 _ZNK11TaskManager12GroupManager16groupingStrategyEv@Base 4:4.3.4
 _ZNK11TaskManager12GroupManager17onlyGroupWhenFullEv@Base 4:4.3.4
 _ZNK11TaskManager12GroupManager17showOnlyMinimizedEv@Base 4:4.3.4
 _ZNK11TaskManager12GroupManager21showOnlyCurrentScreenEv@Base 4:4.3.4
 _ZNK11TaskManager12GroupManager22showOnlyCurrentDesktopEv@Base 4:4.3.4
 _ZNK11TaskManager12GroupManager23showOnlyCurrentActivityEv@Base 4:4.5.90
 _ZNK11TaskManager12GroupManager9rootGroupEv@Base 4:4.3.4
 _ZNK11TaskManager12LauncherItem10metaObjectEv@Base 4:4.5.90
 _ZNK11TaskManager12LauncherItem10shouldShowEv@Base 4:4.6.0
 _ZNK11TaskManager12LauncherItem11addMimeDataEP9QMimeData@Base 4:4.5.90
 _ZNK11TaskManager12LauncherItem11genericNameEv@Base 4:4.5.90
 _ZNK11TaskManager12LauncherItem11isGroupItemEv@Base 4:4.5.90
 _ZNK11TaskManager12LauncherItem11isMaximizedEv@Base 4:4.5.90
 _ZNK11TaskManager12LauncherItem11isMinimizedEv@Base 4:4.5.90
 _ZNK11TaskManager12LauncherItem12isFullScreenEv@Base 4:4.5.90
 _ZNK11TaskManager12LauncherItem13isAlwaysOnTopEv@Base 4:4.5.90
 _ZNK11TaskManager12LauncherItem15isOnAllDesktopsEv@Base 4:4.5.90
 _ZNK11TaskManager12LauncherItem16demandsAttentionEv@Base 4:4.5.90
 _ZNK11TaskManager12LauncherItem17isActionSupportedEN3NET6ActionE@Base 4:4.5.90
 _ZNK11TaskManager12LauncherItem17isKeptBelowOthersEv@Base 4:4.5.90
 _ZNK11TaskManager12LauncherItem18isOnCurrentDesktopEv@Base 4:4.5.90
 _ZNK11TaskManager12LauncherItem3urlEv@Base 4:4.5.90
 _ZNK11TaskManager12LauncherItem4iconEv@Base 4:4.5.90
 _ZNK11TaskManager12LauncherItem4nameEv@Base 4:4.5.90
 _ZNK11TaskManager12LauncherItem7desktopEv@Base 4:4.5.90
 _ZNK11TaskManager12LauncherItem8isActiveEv@Base 4:4.5.90
 _ZNK11TaskManager12LauncherItem8isShadedEv@Base 4:4.5.90
 _ZNK11TaskManager12LauncherItem8itemTypeEv@Base 4:4.5.90
 _ZNK11TaskManager14GroupPopupMenu10metaObjectEv@Base 4:4.3.4
 _ZNK11TaskManager20GroupingStrategyMenu10metaObjectEv@Base 4:4.3.4
 _ZNK11TaskManager21AbstractGroupableItem10metaObjectEv@Base 4:4.3.4
 _ZNK11TaskManager21AbstractGroupableItem11parentGroupEv@Base 4:4.3.4
 _ZNK11TaskManager21AbstractGroupableItem13isGroupMemberEPNS_9TaskGroupE@Base 4:4.3.4
 _ZNK11TaskManager21AbstractGroupableItem13isStartupItemEv@Base 4:4.5.0
 _ZNK11TaskManager21AbstractGroupableItem2idEv@Base 4:4.5.0
 _ZNK11TaskManager21AbstractGroupableItem4iconEv@Base 4:4.3.4
 _ZNK11TaskManager21AbstractGroupableItem4nameEv@Base 4:4.3.4
 _ZNK11TaskManager21AbstractGroupableItem6winIdsEv@Base 4:4.4.0
 _ZNK11TaskManager21AbstractGroupableItem9isGroupedEv@Base 4:4.3.4
 _ZNK11TaskManager23AbstractSortingStrategy10metaObjectEv@Base 4:4.3.4
 _ZNK11TaskManager23AbstractSortingStrategy4typeEv@Base 4:4.3.4
 _ZNK11TaskManager24AbstractGroupingStrategy10metaObjectEv@Base 4:4.3.4
 _ZNK11TaskManager24AbstractGroupingStrategy4typeEv@Base 4:4.3.4
 _ZNK11TaskManager24AbstractGroupingStrategy9rootGroupEv@Base 4:4.3.4
 _ZNK11TaskManager4Task10activitiesEv@Base 4:4.5.90
 _ZNK11TaskManager4Task10classClassEv@Base 4:4.3.4
 _ZNK11TaskManager4Task10isModifiedEv@Base 4:4.3.4
 _ZNK11TaskManager4Task10isOnScreenEi@Base 4:4.3.4
 _ZNK11TaskManager4Task10metaObjectEv@Base 4:4.3.4
 _ZNK11TaskManager4Task10transientsEv@Base 4:4.3.4
 _ZNK11TaskManager4Task11addMimeDataEP9QMimeData@Base 4:4.3.4
 _ZNK11TaskManager4Task11isIconifiedEv@Base 4:4.3.4
 _ZNK11TaskManager4Task11isMaximizedEv@Base 4:4.3.4
 _ZNK11TaskManager4Task11isMinimizedEv@Base 4:4.3.4
 _ZNK11TaskManager4Task11showInPagerEv@Base 4:4.3.4
 _ZNK11TaskManager4Task11visibleNameEv@Base 4:4.3.4
 _ZNK11TaskManager4Task12hasTransientEm@Base 4:4.3.4
 _ZNK11TaskManager4Task12isFullScreenEv@Base 4:4.3.4
 _ZNK11TaskManager4Task13isAlwaysOnTopEv@Base 4:4.3.4
 _ZNK11TaskManager4Task13showInTaskbarEv@Base 4:4.3.4
 _ZNK11TaskManager4Task15isOnAllDesktopsEv@Base 4:4.3.4
 _ZNK11TaskManager4Task16demandsAttentionEv@Base 4:4.3.4
 _ZNK11TaskManager4Task17isKeptBelowOthersEv@Base 4:4.3.4
 _ZNK11TaskManager4Task17isOnAllActivitiesEv@Base 4:4.5.90
 _ZNK11TaskManager4Task18isOnCurrentDesktopEv@Base 4:4.3.4
 _ZNK11TaskManager4Task19isOnCurrentActivityEv@Base 4:4.5.90
 _ZNK11TaskManager4Task20visibleNameWithStateEv@Base 4:4.3.4
 _ZNK11TaskManager4Task4infoEv@Base 4:4.3.4
 _ZNK11TaskManager4Task4nameEv@Base 4:4.3.4
 _ZNK11TaskManager4Task6pixmapEv@Base 4:4.3.4
 _ZNK11TaskManager4Task6windowEv@Base 4:4.3.4
 _ZNK11TaskManager4Task7desktopEv@Base 4:4.3.4
 _ZNK11TaskManager4Task7isOnTopEv@Base 4:4.3.4
 _ZNK11TaskManager4Task8geometryEv@Base 4:4.3.4
 _ZNK11TaskManager4Task8isActiveEv@Base 4:4.3.4
 _ZNK11TaskManager4Task8isShadedEv@Base 4:4.3.4
 _ZNK11TaskManager4Task9classNameEv@Base 4:4.3.4
 _ZNK11TaskManager7Startup10metaObjectEv@Base 4:4.3.4
 _ZNK11TaskManager7Startup13matchesWindowEm@Base 4:4.3.4
 _ZNK11TaskManager7Startup2idEv@Base 4:4.3.4
 _ZNK11TaskManager7Startup3binEv@Base 4:4.3.4
 _ZNK11TaskManager7Startup4iconEv@Base 4:4.3.4
 _ZNK11TaskManager7Startup4textEv@Base 4:4.3.4
 _ZNK11TaskManager8TaskItem10metaObjectEv@Base 4:4.3.4
 _ZNK11TaskManager8TaskItem11addMimeDataEP9QMimeData@Base 4:4.3.4
 _ZNK11TaskManager8TaskItem11isGroupItemEv@Base 4:4.5.90
 _ZNK11TaskManager8TaskItem11isMaximizedEv@Base 4:4.3.4
 _ZNK11TaskManager8TaskItem11isMinimizedEv@Base 4:4.3.4
 _ZNK11TaskManager8TaskItem12isFullScreenEv@Base 4:4.3.4
 _ZNK11TaskManager8TaskItem13isAlwaysOnTopEv@Base 4:4.3.4
 _ZNK11TaskManager8TaskItem13isStartupItemEv@Base 4:4.5.0
 _ZNK11TaskManager8TaskItem15isOnAllDesktopsEv@Base 4:4.3.4
 _ZNK11TaskManager8TaskItem16demandsAttentionEv@Base 4:4.3.4
 _ZNK11TaskManager8TaskItem17isActionSupportedEN3NET6ActionE@Base 4:4.3.4
 _ZNK11TaskManager8TaskItem17isKeptBelowOthersEv@Base 4:4.3.4
 _ZNK11TaskManager8TaskItem18isOnCurrentDesktopEv@Base 4:4.3.4
 _ZNK11TaskManager8TaskItem4iconEv@Base 4:4.3.4
 _ZNK11TaskManager8TaskItem4nameEv@Base 4:4.3.4
 _ZNK11TaskManager8TaskItem4taskEv@Base 4:4.3.4
 _ZNK11TaskManager8TaskItem6winIdsEv@Base 4:4.4.0
 _ZNK11TaskManager8TaskItem7desktopEv@Base 4:4.3.4
 _ZNK11TaskManager8TaskItem7startupEv@Base 4:4.3.4
 _ZNK11TaskManager8TaskItem8isActiveEv@Base 4:4.3.4
 _ZNK11TaskManager8TaskItem8isShadedEv@Base 4:4.3.4
 _ZNK11TaskManager8TaskItem8itemTypeEv@Base 4:4.5.90
 _ZNK11TaskManager9BasicMenu10metaObjectEv@Base 4:4.3.4
 _ZNK11TaskManager9TaskGroup10metaObjectEv@Base 4:4.3.4
 _ZNK11TaskManager9TaskGroup11addMimeDataEP9QMimeData@Base 4:4.3.4
 _ZNK11TaskManager9TaskGroup11isGroupItemEv@Base 4:4.5.90
 _ZNK11TaskManager9TaskGroup11isMaximizedEv@Base 4:4.3.4
 _ZNK11TaskManager9TaskGroup11isMinimizedEv@Base 4:4.3.4
 _ZNK11TaskManager9TaskGroup11isRootGroupEv@Base 4:4.3.4
 _ZNK11TaskManager9TaskGroup12directMemberEPNS_21AbstractGroupableItemE@Base 4:4.3.4
 _ZNK11TaskManager9TaskGroup12isFullScreenEv@Base 4:4.3.4
 _ZNK11TaskManager9TaskGroup13isAlwaysOnTopEv@Base 4:4.3.4
 _ZNK11TaskManager9TaskGroup15hasDirectMemberEPNS_21AbstractGroupableItemE@Base 4:4.3.4
 _ZNK11TaskManager9TaskGroup15isOnAllDesktopsEv@Base 4:4.3.4
 _ZNK11TaskManager9TaskGroup16demandsAttentionEv@Base 4:4.3.4
 _ZNK11TaskManager9TaskGroup17isActionSupportedEN3NET6ActionE@Base 4:4.3.4
 _ZNK11TaskManager9TaskGroup17isKeptBelowOthersEv@Base 4:4.3.4
 _ZNK11TaskManager9TaskGroup18directMemberwinIdsEv@Base 4:4.4.0
 _ZNK11TaskManager9TaskGroup18isOnCurrentDesktopEv@Base 4:4.3.4
 _ZNK11TaskManager9TaskGroup24isPersistentWithLauncherEv@Base 4:4.5.90
 _ZNK11TaskManager9TaskGroup4iconEv@Base 4:4.3.4
 _ZNK11TaskManager9TaskGroup4nameEv@Base 4:4.3.4
 _ZNK11TaskManager9TaskGroup5colorEv@Base 4:4.3.4
 _ZNK11TaskManager9TaskGroup6winIdsEv@Base 4:4.4.0
 _ZNK11TaskManager9TaskGroup7desktopEv@Base 4:4.3.4
 _ZNK11TaskManager9TaskGroup7membersEv@Base 4:4.3.4
 _ZNK11TaskManager9TaskGroup8isActiveEv@Base 4:4.3.4
#MISSING: 4:4.5.90# _ZNK11TaskManager9TaskGroup8isPinnedEv@Base 4:4.3.4
 _ZNK11TaskManager9TaskGroup8isShadedEv@Base 4:4.3.4
 _ZNK11TaskManager9TaskGroup8itemTypeEv@Base 4:4.5.90
 _ZNK11TaskManager9TaskGroup9hasMemberEPNS_21AbstractGroupableItemE@Base 4:4.3.4
 _ZTIN11TaskManager11TaskManagerE@Base 4:4.3.4
 _ZTIN11TaskManager12AdvancedMenuE@Base 4:4.3.4
 _ZTIN11TaskManager12DesktopsMenuE@Base 4:4.3.4
 _ZTIN11TaskManager12GroupManagerE@Base 4:4.3.4
 _ZTIN11TaskManager12LauncherItemE@Base 4:4.5.90
 _ZTIN11TaskManager14GroupPopupMenuE@Base 4:4.3.4
 _ZTIN11TaskManager20GroupingStrategyMenuE@Base 4:4.3.4
 _ZTIN11TaskManager21AbstractGroupableItemE@Base 4:4.3.4
 _ZTIN11TaskManager23AbstractSortingStrategyE@Base 4:4.3.4
 _ZTIN11TaskManager24AbstractGroupingStrategyE@Base 4:4.3.4
 _ZTIN11TaskManager4TaskE@Base 4:4.3.4
 _ZTIN11TaskManager7StartupE@Base 4:4.3.4
 _ZTIN11TaskManager8TaskItemE@Base 4:4.3.4
 _ZTIN11TaskManager9BasicMenuE@Base 4:4.3.4
 _ZTIN11TaskManager9TaskGroupE@Base 4:4.3.4
 _ZTSN11TaskManager11TaskManagerE@Base 4:4.3.4
 _ZTSN11TaskManager12AdvancedMenuE@Base 4:4.3.4
 _ZTSN11TaskManager12DesktopsMenuE@Base 4:4.3.4
 _ZTSN11TaskManager12GroupManagerE@Base 4:4.3.4
 _ZTSN11TaskManager12LauncherItemE@Base 4:4.5.90
 _ZTSN11TaskManager14GroupPopupMenuE@Base 4:4.3.4
 _ZTSN11TaskManager20GroupingStrategyMenuE@Base 4:4.3.4
 _ZTSN11TaskManager21AbstractGroupableItemE@Base 4:4.3.4
 _ZTSN11TaskManager23AbstractSortingStrategyE@Base 4:4.3.4
 _ZTSN11TaskManager24AbstractGroupingStrategyE@Base 4:4.3.4
 _ZTSN11TaskManager4TaskE@Base 4:4.3.4
 _ZTSN11TaskManager7StartupE@Base 4:4.3.4
 _ZTSN11TaskManager8TaskItemE@Base 4:4.3.4
 _ZTSN11TaskManager9BasicMenuE@Base 4:4.3.4
 _ZTSN11TaskManager9TaskGroupE@Base 4:4.3.4
 _ZTVN11TaskManager11TaskManagerE@Base 4:4.3.4
 _ZTVN11TaskManager12AdvancedMenuE@Base 4:4.3.4
 _ZTVN11TaskManager12DesktopsMenuE@Base 4:4.3.4
 _ZTVN11TaskManager12GroupManagerE@Base 4:4.3.4
 _ZTVN11TaskManager12LauncherItemE@Base 4:4.5.90
 _ZTVN11TaskManager14GroupPopupMenuE@Base 4:4.3.4
 _ZTVN11TaskManager20GroupingStrategyMenuE@Base 4:4.3.4
 _ZTVN11TaskManager21AbstractGroupableItemE@Base 4:4.3.4
 _ZTVN11TaskManager23AbstractSortingStrategyE@Base 4:4.3.4
 _ZTVN11TaskManager24AbstractGroupingStrategyE@Base 4:4.3.4
 _ZTVN11TaskManager4TaskE@Base 4:4.3.4
 _ZTVN11TaskManager7StartupE@Base 4:4.3.4
 _ZTVN11TaskManager8TaskItemE@Base 4:4.3.4
 _ZTVN11TaskManager9BasicMenuE@Base 4:4.3.4
 _ZTVN11TaskManager9TaskGroupE@Base 4:4.3.4
