# SymbolsHelper-Confirmed: 4:4.4.0 amd64 i386
libweather_ion.so.4 libweather-ion4a #MINVER#
* Build-Depends-Package: kdebase-workspace-dev
 _ZN12IonInterface11qt_metacallEN11QMetaObject4CallEiPPv@Base 4:4.4.0
 _ZN12IonInterface11qt_metacastEPKc@Base 4:4.4.0
 _ZN12IonInterface14resetCompletedEPS_b@Base 4:4.4.0
 _ZN12IonInterface14setInitializedEb@Base 4:4.4.0
 _ZN12IonInterface16staticMetaObjectE@Base 4:4.4.0
 _ZN12IonInterface17updateSourceEventERK7QString@Base 4:4.4.0
 _ZN12IonInterface18sourceRequestEventERK7QString@Base 4:4.4.0
 _ZN12IonInterfaceC1EP7QObjectRK5QListI8QVariantE@Base 4:4.4.0
 _ZN12IonInterfaceC2EP7QObjectRK5QListI8QVariantE@Base 4:4.4.0
 _ZN12IonInterfaceD0Ev@Base 4:4.4.0
 _ZN12IonInterfaceD1Ev@Base 4:4.4.0
 _ZN12IonInterfaceD2Ev@Base 4:4.4.0
 _ZN12WeatherUtils17degreesToCardinalEf@Base 4:4.4.0
 _ZNK12IonInterface10metaObjectEv@Base 4:4.4.0
 _ZNK12IonInterface14getWeatherIconENS_14ConditionIconsE@Base 4:4.4.0
 _ZNK12IonInterface14getWeatherIconERK4QMapI7QStringNS_14ConditionIconsEERKS1_@Base 4:4.4.0
 _ZNK12IonInterface20getWindDirectionIconERK4QMapI7QStringNS_14WindDirectionsEERKS1_@Base 4:4.4.0
 _ZTI12IonInterface@Base 4:4.4.0
 _ZTS12IonInterface@Base 4:4.4.0
 _ZTV12IonInterface@Base 4:4.4.0
